ccopy_reg
_reconstructor
p0
(c__main__
RizzoSignatures
p1
c__builtin__
object
p2
Ntp3
Rp4
(dp5
S'functions'
p6
(dp7
L9284L
(S'_aes_reset'
p8
(lp9
(L3084668428L
L0L
(lp10
(lp11
tp12
a(L2398967081L
L0L
(lp13
(lp14
tp15
a(L788058486L
L0L
(lp16
(lp17
tp18
a(L4036006407L
L0L
(lp19
(lp20
tp21
a(L1356022597L
L0L
(lp22
(lp23
tp24
atp25
sL9380L
(S'_aes_init'
p26
(lp27
(L3801212034L
L0L
(lp28
(lp29
tp30
a(L1996792894L
L0L
(lp31
(lp32
tp33
a(L534032976L
L0L
(lp34
(lp35
tp36
a(L1817774827L
L0L
(lp37
(lp38
tp39
a(L3404916688L
L3438772250L
(lp40
(lp41
S'_aes_reset'
p42
atp43
a(L813011778L
L0L
(lp44
(lp45
tp46
a(L1687387657L
L3438772250L
(lp47
(lp48
S'_pack'
p49
atp50
a(L2157374279L
L0L
(lp51
(lp52
tp53
a(L358386214L
L0L
(lp54
(lp55
tp56
a(L3448878285L
L0L
(lp57
(lp58
tp59
a(L581817216L
L1086001547L
(lp60
L4294967288L
a(lp61
tp62
a(L2928116814L
L0L
(lp63
(lp64
tp65
a(L3884844089L
L3438772250L
(lp66
(lp67
S'_SubByte'
p68
atp69
a(L658820592L
L0L
(lp70
(lp71
tp72
a(L4032868790L
L0L
(lp73
(lp74
tp75
a(L4035310385L
L0L
(lp76
(lp77
tp78
a(L1202983693L
L0L
(lp79
(lp80
tp81
a(L3249209674L
L0L
(lp82
(lp83
tp84
a(L2329180938L
L0L
(lp85
(lp86
tp87
a(L3012850547L
L0L
(lp88
(lp89
tp90
a(L3328112819L
L0L
(lp91
(lp92
tp93
a(L2883356460L
L0L
(lp94
(lp95
tp96
a(L1073405845L
L3438772250L
(lp97
(lp98
S'_SubByte'
p99
atp100
a(L3726649060L
L0L
(lp101
(lp102
tp103
a(L4208394770L
L0L
(lp104
(lp105
tp106
a(L4035310385L
L0L
(lp107
(lp108
tp109
a(L1202983693L
L0L
(lp110
(lp111
tp112
a(L48386101L
L0L
(lp113
(lp114
tp115
a(L2665081382L
L0L
(lp116
(lp117
tp118
a(L1217688842L
L0L
(lp119
(lp120
tp121
a(L4026973640L
L0L
(lp122
(lp123
tp124
a(L2007735124L
L0L
(lp125
(lp126
tp127
a(L3823124567L
L0L
(lp128
(lp129
tp130
a(L2543457793L
L0L
(lp131
(lp132
tp133
a(L738602451L
L3438772250L
(lp134
(lp135
S'_InvMixCol'
p136
atp137
a(L1800542109L
L0L
(lp138
(lp139
tp140
a(L1930228948L
L0L
(lp141
(lp142
tp143
a(L1320661356L
L0L
(lp144
(lp145
tp146
a(L3720504572L
L0L
(lp147
(lp148
tp149
a(L960871367L
L0L
(lp150
(lp151
tp152
a(L1606731988L
L0L
(lp153
(lp154
tp155
atp156
sL9348L
(S'_aes_getreg'
p157
(lp158
(L824573878L
L0L
(lp159
(lp160
tp161
a(L3437568998L
L0L
(lp162
(lp163
tp164
a(L1356022597L
L0L
(lp165
(lp166
tp167
atp168
sL13748L
(S'_aes_end'
p169
(lp170
(L992029133L
L0L
(lp171
(lp172
tp173
a(L1134506623L
L0L
(lp174
(lp175
tp176
a(L616312834L
L0L
(lp177
(lp178
tp179
a(L573706057L
L0L
(lp180
(lp181
tp182
a(L3028187098L
L0L
(lp183
(lp184
tp185
atp186
sL10548L
(S'_bmul'
p187
(lp188
(L2863915201L
L0L
(lp189
(lp190
tp191
a(L2925344975L
L0L
(lp192
(lp193
tp194
a(L72103403L
L432033468L
(lp195
(lp196
tp197
a(L1883996097L
L0L
(lp198
(lp199
tp200
atp201
sL10628L
(S'_aes_encrypt'
p202
(lp203
(L1130262534L
L0L
(lp204
(lp205
tp206
a(L3217590755L
L2614424152L
(lp207
(lp208
tp209
a(L1239897851L
L3438772250L
(lp210
(lp211
S'_aes_ecb_encrypt'
p212
atp213
a(L3235080019L
L0L
(lp214
(lp215
tp216
a(L3165452062L
L0L
(lp217
(lp218
tp219
a(L1264593283L
L0L
(lp220
(lp221
tp222
a(L345016443L
L3438772250L
(lp223
(lp224
S'_aes_ecb_encrypt'
p225
atp226
a(L3869783720L
L0L
(lp227
(lp228
tp229
a(L3235080019L
L0L
(lp230
(lp231
tp232
a(L1086091673L
L0L
(lp233
(lp234
tp235
a(L4246642992L
L0L
(lp236
(lp237
tp238
a(L4184363504L
L0L
(lp239
(lp240
tp241
a(L4253944736L
L0L
(lp242
(lp243
tp244
a(L404627467L
L0L
(lp245
(lp246
tp247
a(L4061250452L
L3438772250L
(lp248
(lp249
S'_aes_ecb_encrypt'
p250
atp251
a(L3845445624L
L0L
(lp252
(lp253
tp254
a(L180533409L
L0L
(lp255
(lp256
tp257
a(L2194536862L
L0L
(lp258
(lp259
tp260
a(L1007098743L
L0L
(lp261
(lp262
tp263
a(L1108653936L
L3438772250L
(lp264
(lp265
S'_aes_ecb_encrypt'
p266
atp267
a(L2477453091L
L0L
(lp268
(lp269
tp270
a(L1928990461L
L0L
(lp271
(lp272
tp273
a(L3235080019L
L0L
(lp274
(lp275
tp276
a(L61244529L
L0L
(lp277
(lp278
tp279
a(L2302640468L
L0L
(lp280
(lp281
tp282
a(L4184363504L
L0L
(lp283
(lp284
tp285
a(L2982935573L
L0L
(lp286
(lp287
tp288
a(L404627467L
L0L
(lp289
(lp290
tp291
a(L4061250452L
L3438772250L
(lp292
(lp293
S'_aes_ecb_encrypt'
p294
atp295
a(L239965708L
L0L
(lp296
(lp297
tp298
a(L1412239134L
L0L
(lp299
(lp300
tp301
a(L3830605701L
L0L
(lp302
(lp303
tp304
atp305
sL10324L
(S'_InvMixCol'
p306
(lp307
(L4268115733L
L1302980056L
(lp308
(lp309
S'_pack'
p310
aS'_product'
p311
aS'_product'
p312
aS'_product'
p313
aS'_product'
p314
aS'_pack'
p315
atp316
atp317
sL12788L
(S'_aes_ecb_decrypt'
p318
(lp319
(L1733967128L
L0L
(lp320
(lp321
tp322
a(L475971266L
L3438772250L
(lp323
(lp324
S'_pack'
p325
atp326
a(L3600894885L
L0L
(lp327
(lp328
tp329
a(L3255935306L
L0L
(lp330
(lp331
tp332
a(L72035239L
L581859008L
(lp333
(lp334
tp335
a(L2305697229L
L581859008L
(lp336
(lp337
tp338
a(L60782218L
L3438772250L
(lp339
(lp340
S'_unpack'
p341
atp342
a(L2017594120L
L0L
(lp343
(lp344
tp345
atp346
sL10164L
(S'_SubByte'
p347
(lp348
(L1367070582L
L1335659784L
(lp349
(lp350
S'_unpack'
p351
aS'_pack'
p352
atp353
atp354
sL11220L
(S'_aes_ecb_encrypt'
p355
(lp356
(L3511000505L
L0L
(lp357
(lp358
tp359
a(L475971266L
L3438772250L
(lp360
(lp361
S'_pack'
p362
atp363
a(L3600894885L
L0L
(lp364
(lp365
tp366
a(L79628341L
L0L
(lp367
(lp368
tp369
a(L114172385L
L581859008L
(lp370
(lp371
tp372
a(L2265593463L
L581859008L
(lp373
(lp374
tp375
a(L60782218L
L3438772250L
(lp376
(lp377
S'_unpack'
p378
atp379
a(L2017594120L
L0L
(lp380
(lp381
tp382
atp383
sL10116L
(S'_pack'
p384
(lp385
(L731339740L
L0L
(lp386
(lp387
tp388
atp389
sL12164L
(S'_aes_decrypt'
p390
(lp391
(L4293801134L
L0L
(lp392
(lp393
tp394
a(L3217590755L
L2614424152L
(lp395
(lp396
tp397
a(L1239897851L
L3438772250L
(lp398
(lp399
S'_aes_ecb_decrypt'
p400
atp401
a(L3235080019L
L0L
(lp402
(lp403
tp404
a(L1115582497L
L880158960L
(lp405
L4294966804L
a(lp406
tp407
a(L1171431274L
L0L
(lp408
(lp409
tp410
a(L3787170487L
L3438772250L
(lp411
(lp412
S'_aes_ecb_decrypt'
p413
atp414
a(L206512618L
L0L
(lp415
(lp416
tp417
a(L3235080019L
L0L
(lp418
(lp419
tp420
a(L1086091673L
L0L
(lp421
(lp422
tp423
a(L2421693984L
L0L
(lp424
(lp425
tp426
a(L4184363512L
L0L
(lp427
(lp428
tp429
a(L4253944736L
L0L
(lp430
(lp431
tp432
a(L3534080417L
L0L
(lp433
(lp434
tp435
a(L4061250452L
L3438772250L
(lp436
(lp437
S'_aes_ecb_encrypt'
p438
atp439
a(L3845445624L
L0L
(lp440
(lp441
tp442
a(L2531471906L
L0L
(lp443
(lp444
tp445
a(L2165569622L
L0L
(lp446
(lp447
tp448
a(L4230952255L
L0L
(lp449
(lp450
tp451
a(L1108653936L
L3438772250L
(lp452
(lp453
S'_aes_ecb_encrypt'
p454
atp455
a(L2477453091L
L0L
(lp456
(lp457
tp458
a(L1928990461L
L0L
(lp459
(lp460
tp461
a(L3235080019L
L0L
(lp462
(lp463
tp464
a(L61244529L
L0L
(lp465
(lp466
tp467
a(L2523296900L
L0L
(lp468
(lp469
tp470
a(L4184363512L
L0L
(lp471
(lp472
tp473
a(L2982935573L
L0L
(lp474
(lp475
tp476
a(L3534080417L
L0L
(lp477
(lp478
tp479
a(L2651955470L
L3438772250L
(lp480
(lp481
S'_aes_ecb_encrypt'
p482
atp483
a(L239965708L
L0L
(lp484
(lp485
tp486
a(L2884930695L
L0L
(lp487
(lp488
tp489
a(L78429717L
L0L
(lp490
(lp491
tp492
atp493
sL10436L
(S'_product'
p494
(lp495
(L3652839907L
L3095270240L
(lp496
(lp497
S'_unpack'
p498
aS'_unpack'
p499
aS'_bmul'
p500
aS'_bmul'
p501
aS'_bmul'
p502
aS'_bmul'
p503
atp504
atp505
sL10276L
(S'_unpack'
p506
(lp507
(L4906478L
L0L
(lp508
(lp509
tp510
atp511
ssS'fuzzydups'
p512
c__builtin__
set
p513
((lp514
tp515
Rp516
sS'stringdups'
p517
g513
((lp518
tp519
Rp520
sS'immediates'
p521
(dp522
L4294967288L
L9380L
sL4294966804L
L12164L
ssS'formaldups'
p523
g513
((lp524
tp525
Rp526
sS'immediatedups'
p527
g513
((lp528
tp529
Rp530
sS'fuzzy'
p531
(dp532
L1679601864L
L10628L
sL623983114L
L10324L
sL3180194993L
L10548L
sL1987795410L
L10436L
sL910570963L
L9348L
sL363530329L
L10164L
sL4146279739L
L12164L
sL614579274L
L9380L
ssS'strings'
p533
(dp534
sS'formal'
p535
(dp536
L3980771744L
L10116L
sL3274908352L
L12788L
sL2123359235L
L9284L
sL2546684103L
L10276L
sL1521862636L
L12164L
sL2161630375L
L10164L
sL3819439468L
L11220L
sL704787469L
L10548L
sL2101217422L
L9380L
sL775802607L
L10628L
sL3611873522L
L10436L
sL2158729123L
L9348L
sL881321714L
L13748L
sL2679261534L
L10324L
ssb.