ccopy_reg
_reconstructor
p0
(c__main__
RizzoSignatures
p1
c__builtin__
object
p2
Ntp3
Rp4
(dp5
S'functions'
p6
(dp7
L0L
(S'_mr_padd'
p8
(lp9
(L919072699L
L0L
(lp10
(lp11
tp12
a(L749767112L
L0L
(lp13
(lp14
tp15
a(L584398075L
L3438772250L
(lp16
(lp17
S'_copy'
p18
atp19
a(L156978819L
L0L
(lp20
(lp21
tp22
a(L271877311L
L0L
(lp23
(lp24
tp25
a(L2843671237L
L3438772250L
(lp26
(lp27
S'_copy'
p28
atp29
a(L179779481L
L0L
(lp30
(lp31
tp32
a(L477904421L
L0L
(lp33
(lp34
tp35
a(L316497463L
L1650168448L
(lp36
(lp37
tp38
a(L1129590516L
L0L
(lp39
(lp40
tp41
a(L3876116153L
L0L
(lp42
(lp43
tp44
a(L853067970L
L1650168448L
(lp45
(lp46
tp47
a(L4193462046L
L0L
(lp48
(lp49
tp50
a(L3567675667L
L0L
(lp51
(lp52
tp53
a(L1086479847L
L0L
(lp54
(lp55
tp56
a(L77879384L
L0L
(lp57
(lp58
tp59
a(L3246209553L
L0L
(lp60
(lp61
tp62
a(L3076547392L
L0L
(lp63
(lp64
tp65
a(L1605575004L
L0L
(lp66
(lp67
tp68
a(L1424969350L
L0L
(lp69
(lp70
tp71
a(L1612742982L
L0L
(lp72
(lp73
tp74
a(L3662156016L
L0L
(lp75
(lp76
tp77
a(L203712920L
L0L
(lp78
(lp79
tp80
a(L2347316306L
L0L
(lp81
(lp82
tp83
a(L77879384L
L0L
(lp84
(lp85
tp86
a(L3246209553L
L0L
(lp87
(lp88
tp89
a(L3076547392L
L0L
(lp90
(lp91
tp92
a(L2975841707L
L0L
(lp93
(lp94
tp95
a(L3365132686L
L0L
(lp96
(lp97
tp98
a(L653184198L
L0L
(lp99
(lp100
tp101
a(L3074023482L
L1650168448L
(lp102
(lp103
tp104
a(L2971635701L
L0L
(lp105
(lp106
tp107
a(L3102615363L
L3438772250L
(lp108
(lp109
S'_mr_berror'
p110
atp111
a(L156102775L
L0L
(lp112
(lp113
tp114
a(L2798981006L
L0L
(lp115
(lp116
tp117
a(L2711981627L
L0L
(lp118
(lp119
tp120
a(L1852589817L
L1650168448L
(lp121
(lp122
tp123
a(L1820746129L
L0L
(lp124
(lp125
tp126
a(L1470841972L
L0L
(lp127
(lp128
tp129
a(L1424969350L
L0L
(lp130
(lp131
tp132
a(L4153256526L
L0L
(lp133
(lp134
tp135
a(L3462605094L
L0L
(lp136
(lp137
tp138
a(L203712920L
L0L
(lp139
(lp140
tp141
a(L3093253521L
L1650168448L
(lp142
(lp143
tp144
a(L1820746112L
L0L
(lp145
(lp146
tp147
a(L2339145266L
L0L
(lp148
(lp149
tp150
a(L3365132686L
L0L
(lp151
(lp152
tp153
a(L653184198L
L0L
(lp154
(lp155
tp156
a(L3074023482L
L1650168448L
(lp157
(lp158
tp159
a(L3883727245L
L0L
(lp160
(lp161
tp162
a(L3102615363L
L3438772250L
(lp163
(lp164
S'_mr_berror'
p165
atp166
a(L1619291283L
L0L
(lp167
(lp168
tp169
a(L1850940478L
L0L
(lp170
(lp171
tp172
a(L706238301L
L0L
(lp173
(lp174
tp175
a(L3152638155L
L0L
(lp176
(lp177
tp178
atp179
sL1408L
(S'_incr'
p180
(lp181
(L3985540784L
L1650168448L
(lp182
(lp183
tp184
a(L2622929612L
L1650168448L
(lp185
(lp186
tp187
a(L653329394L
L1650168448L
(lp188
(lp189
tp190
a(L520110351L
L1912178190L
(lp191
(lp192
S'_mr_track'
p193
atp194
a(L613080469L
L3551412508L
(lp195
(lp196
S'_convert'
p197
aS'_mr_select'
p198
atp199
a(L425776429L
L0L
(lp200
(lp201
tp202
atp203
sL976L
(S'_mr_select'
p204
(lp205
(L404580971L
L3438772250L
(lp206
(lp207
S'_mr_notint'
p208
atp209
a(L2657668974L
L3438772250L
(lp210
(lp211
S'_mr_notint'
p212
atp213
a(L3966591052L
L1334040810L
(lp214
L2147483647L
aL2147483647L
a(lp215
S'_exsign'
p216
aS'_exsign'
p217
aS'_mr_compare'
p218
atp219
a(L2684345358L
L1650168448L
(lp220
(lp221
tp222
a(L1718190994L
L0L
(lp223
(lp224
tp225
a(L1942559291L
L3438772250L
(lp226
(lp227
S'_mr_padd'
p228
atp229
a(L1745191817L
L3438772250L
(lp230
(lp231
S'_mr_padd'
p232
atp233
a(L1718191001L
L0L
(lp234
(lp235
tp236
a(L1724906208L
L3438772250L
(lp237
(lp238
S'_mr_psub'
p239
atp240
a(L3045280867L
L0L
(lp241
(lp242
tp243
a(L1868153140L
L3438772250L
(lp244
(lp245
S'_mr_psub'
p246
atp247
a(L3253150513L
L3991344601L
(lp248
L2147483648L
a(lp249
tp250
a(L3267773503L
L0L
(lp251
(lp252
tp253
a(L897742017L
L0L
(lp254
(lp255
tp256
a(L4139311101L
L3991344601L
(lp257
L2147483648L
a(lp258
tp259
a(L931734816L
L0L
(lp260
(lp261
tp262
a(L581346962L
L0L
(lp263
(lp264
tp265
a(L2927853717L
L0L
(lp266
(lp267
tp268
a(L4035847862L
L3991344601L
(lp269
L2147483648L
a(lp270
tp271
a(L1718190994L
L0L
(lp272
(lp273
tp274
a(L1588875930L
L3438772250L
(lp275
(lp276
S'_mr_psub'
p277
atp278
a(L3615646513L
L0L
(lp279
(lp280
tp281
a(L1718190994L
L0L
(lp282
(lp283
tp284
a(L1588875930L
L3438772250L
(lp285
(lp286
S'_mr_padd'
p287
atp288
a(L1724906208L
L3438772250L
(lp289
(lp290
S'_mr_padd'
p291
atp292
a(L896650328L
L3438772250L
(lp293
(lp294
S'_mr_berror'
p295
atp296
a(L2222856904L
L0L
(lp297
(lp298
tp299
atp300
sL864L
(S'_add'
p301
(lp302
(L3985540784L
L1650168448L
(lp303
(lp304
tp305
a(L802278310L
L1650168448L
(lp306
(lp307
tp308
a(L3446376164L
L1650168448L
(lp309
(lp310
tp311
a(L1868153140L
L3438772250L
(lp312
(lp313
S'_mr_track'
p314
atp315
a(L1541370883L
L1912178190L
(lp316
(lp317
S'_mr_select'
p318
atp319
a(L425776429L
L0L
(lp320
(lp321
tp322
atp323
sL1672L
(S'_copy'
p324
(lp325
(L425776429L
L0L
(lp326
(lp327
tp328
atp329
sL1676L
(S'_mr_lzero'
p330
(lp331
(L425776429L
L0L
(lp332
(lp333
tp334
atp335
sL1296L
(S'_subtract'
p336
(lp337
(L3985540784L
L1650168448L
(lp338
(lp339
tp340
a(L802278310L
L1650168448L
(lp341
(lp342
tp343
a(L4046135655L
L1650168448L
(lp344
(lp345
tp346
a(L1868153140L
L3438772250L
(lp347
(lp348
S'_mr_track'
p349
atp350
a(L1659139767L
L3201111617L
(lp351
L4294967295L
a(lp352
S'_mr_select'
p353
atp354
a(L425776429L
L0L
(lp355
(lp356
tp357
atp358
sL592L
(S'_mr_psub'
p359
(lp360
(L3625017498L
L0L
(lp361
(lp362
tp363
a(L53265820L
L0L
(lp364
(lp365
tp366
a(L3796941466L
L3438772250L
(lp367
(lp368
S'_copy'
p369
atp370
a(L2789618206L
L0L
(lp371
(lp372
tp373
a(L1573893492L
L1650168448L
(lp374
(lp375
tp376
a(L3202539374L
L0L
(lp377
(lp378
tp379
a(L1570882146L
L0L
(lp380
(lp381
tp382
a(L1502103434L
L0L
(lp383
(lp384
tp385
a(L3770055776L
L0L
(lp386
(lp387
tp388
a(L1580258117L
L0L
(lp389
(lp390
tp391
a(L3863686678L
L0L
(lp392
(lp393
tp394
a(L3258209778L
L0L
(lp395
(lp396
tp397
a(L45402479L
L0L
(lp398
(lp399
tp400
a(L1126533694L
L0L
(lp401
(lp402
tp403
a(L2929619371L
L0L
(lp404
(lp405
tp406
a(L1570882146L
L0L
(lp407
(lp408
tp409
a(L1502103434L
L0L
(lp410
(lp411
tp412
a(L3770055776L
L0L
(lp413
(lp414
tp415
a(L1405172921L
L0L
(lp416
(lp417
tp418
a(L938617559L
L0L
(lp419
(lp420
tp421
a(L2181421196L
L1650168448L
(lp422
(lp423
tp424
a(L1472971579L
L3438772250L
(lp425
(lp426
S'_mr_lzero'
p427
atp428
a(L3222460896L
L3438772250L
(lp429
(lp430
S'_mr_berror'
p431
atp432
atp433
sL1684L
(S'_mr_compare'
p434
(lp435
(L425776429L
L0L
(lp436
(lp437
tp438
atp439
sL1680L
(S'_mr_track'
p440
(lp441
(L425776429L
L0L
(lp442
(lp443
tp444
atp445
sL1536L
(S'_decr'
p446
(lp447
(L3985540784L
L1650168448L
(lp448
(lp449
tp450
a(L2622929612L
L1650168448L
(lp451
(lp452
tp453
a(L1221226493L
L1650168448L
(lp454
(lp455
tp456
a(L520110351L
L1912178190L
(lp457
(lp458
S'_mr_track'
p459
atp460
a(L239798359L
L104661631L
(lp461
L4294967295L
a(lp462
S'_convert'
p463
aS'_mr_select'
p464
atp465
a(L425776429L
L0L
(lp466
(lp467
tp468
atp469
sL1688L
(S'_exsign'
p470
(lp471
(L425776429L
L0L
(lp472
(lp473
tp474
atp475
sL1664L
(S'_mr_berror'
p476
(lp477
(L425776429L
L0L
(lp478
(lp479
tp480
atp481
sL1696L
(S'_convert'
p482
(lp483
(L425776429L
L0L
(lp484
(lp485
tp486
atp487
sL1692L
(S'_mr_notint'
p488
(lp489
(L425776429L
L0L
(lp490
(lp491
tp492
atp493
ssS'fuzzydups'
p494
c__builtin__
set
p495
((lp496
tp497
Rp498
sS'stringdups'
p499
g495
((lp500
tp501
Rp502
sS'immediates'
p503
(dp504
sS'formaldups'
p505
g495
((lp506
tp507
Rp508
sS'immediatedups'
p509
g495
((lp510
tp511
Rp512
sS'fuzzy'
p513
(dp514
L481616292L
L1536L
sL1001107846L
L1296L
sL410757586L
L864L
sL706057461L
L976L
sL2297770615L
L592L
sL1286251129L
L0L
sL3828070589L
L1408L
ssS'strings'
p515
(dp516
sS'formal'
p517
(dp518
L663053248L
L592L
sL2482327426L
L1296L
sL4163900675L
L976L
sL4243697161L
L864L
sL157638572L
L1536L
sL4095033357L
L1408L
sL3958178264L
L0L
ssb.