ccopy_reg
_reconstructor
p0
(c__main__
RizzoSignatures
p1
c__builtin__
object
p2
Ntp3
Rp4
(dp5
S'functions'
p6
(dp7
L0L
(S'_expint'
p8
(lp9
(L3401534617L
L1650168448L
(lp10
(lp11
tp12
a(L1393609212L
L3438772250L
(lp13
(lp14
S'_convert'
p15
atp16
a(L703222587L
L2614424152L
(lp17
(lp18
tp19
a(L985837262L
L1650168448L
(lp20
(lp21
tp22
a(L1868153140L
L3438772250L
(lp23
(lp24
S'_mr_track'
p25
atp26
a(L4290324433L
L0L
(lp27
(lp28
tp29
a(L19252179L
L1912178190L
(lp30
(lp31
S'_mr_berror'
p32
atp33
a(L22169153L
L0L
(lp34
(lp35
tp36
a(L954318683L
L1912178190L
(lp37
(lp38
S'_expb2'
p39
atp40
a(L2885239826L
L0L
(lp41
(lp42
tp43
a(L3574193484L
L0L
(lp44
(lp45
tp46
a(L1893323453L
L0L
(lp47
(lp48
tp49
a(L3004584974L
L3438772250L
(lp50
(lp51
S'_multiply'
p52
atp53
a(L4213487201L
L3438772250L
(lp54
(lp55
S'_premult'
p56
atp57
a(L145710992L
L0L
(lp58
(lp59
tp60
a(L4035546800L
L1650168448L
(lp61
(lp62
tp63
a(L1994012262L
L0L
(lp64
(lp65
tp66
atp67
sL1808L
(S'_premult'
p68
(lp69
(L425776429L
L0L
(lp70
(lp71
tp72
atp73
sL1812L
(S'_multiply'
p74
(lp75
(L425776429L
L0L
(lp76
(lp77
tp78
atp79
sL1816L
(S'_expb2'
p80
(lp81
(L425776429L
L0L
(lp82
(lp83
tp84
atp85
sL1820L
(S'_mr_berror'
p86
(lp87
(L425776429L
L0L
(lp88
(lp89
tp90
atp91
sL1824L
(S'_mr_track'
p92
(lp93
(L425776429L
L0L
(lp94
(lp95
tp96
atp97
sL1828L
(S'_convert'
p98
(lp99
(L425776429L
L0L
(lp100
(lp101
tp102
atp103
sL1836L
(S'_mr_sdiv'
p104
(lp105
(L425776429L
L0L
(lp106
(lp107
tp108
atp109
sL1840L
(S'_mad'
p110
(lp111
(L425776429L
L0L
(lp112
(lp113
tp114
atp115
sL1844L
(S'_divide'
p116
(lp117
(L425776429L
L0L
(lp118
(lp119
tp120
atp121
sL1848L
(S'_normalise'
p122
(lp123
(L425776429L
L0L
(lp124
(lp125
tp126
atp127
sL1852L
(S'_size'
p128
(lp129
(L425776429L
L0L
(lp130
(lp131
tp132
atp133
sL1856L
(S'_zero'
p134
(lp135
(L425776429L
L0L
(lp136
(lp137
tp138
atp139
sL1888L
(S'_logb2'
p140
(lp141
(L425776429L
L0L
(lp142
(lp143
tp144
atp145
sL1860L
(S'_copy'
p146
(lp147
(L425776429L
L0L
(lp148
(lp149
tp150
atp151
sL1864L
(S'_mr_compare'
p152
(lp153
(L425776429L
L0L
(lp154
(lp155
tp156
atp157
sL1868L
(S'_decr'
p158
(lp159
(L425776429L
L0L
(lp160
(lp161
tp162
atp163
sL1872L
(S'_add'
p164
(lp165
(L425776429L
L0L
(lp166
(lp167
tp168
atp169
sL1876L
(S'_subdiv'
p170
(lp171
(L425776429L
L0L
(lp172
(lp173
tp174
atp175
sL1880L
(S'_subtract'
p176
(lp177
(L425776429L
L0L
(lp178
(lp179
tp180
atp181
sL1884L
(S'_mr_shift'
p182
(lp183
(L425776429L
L0L
(lp184
(lp185
tp186
atp187
sL736L
(S'_nroot'
p188
(lp189
(L4125463976L
L1650168448L
(lp190
(lp191
tp192
a(L3351156743L
L0L
(lp193
(lp194
tp195
a(L3745160027L
L3438772250L
(lp196
(lp197
S'_size'
p198
atp199
a(L3186674354L
L0L
(lp200
(lp201
tp202
a(L1182507558L
L2614424152L
(lp203
(lp204
tp205
a(L3600972742L
L1650168448L
(lp206
(lp207
tp208
a(L1868153140L
L3438772250L
(lp209
(lp210
S'_mr_track'
p211
atp212
a(L3273329236L
L0L
(lp213
(lp214
tp215
a(L144442673L
L3438772250L
(lp216
(lp217
S'_mr_berror'
p218
atp219
a(L1371545477L
L4269683978L
(lp220
L2147483649L
a(lp221
S'_exsign'
p222
atp223
a(L2079164816L
L1504367734L
(lp224
L4294967294L
a(lp225
tp226
a(L3246209545L
L0L
(lp227
(lp228
tp229
a(L944211838L
L1504367735L
(lp230
L4294967295L
a(lp231
tp232
a(L3460124306L
L3438772250L
(lp233
(lp234
S'_mr_berror'
p235
atp236
a(L489289533L
L1650168448L
(lp237
(lp238
tp239
a(L3132604321L
L0L
(lp240
(lp241
tp242
a(L3768768166L
L1354249480L
(lp243
(lp244
S'_insign'
p245
aS'_logb2'
p246
atp247
a(L1144244330L
L3504974572L
(lp248
(lp249
S'_insign'
p250
aS'_convert'
p251
atp252
a(L893329117L
L3606524018L
(lp253
(lp254
S'_expb2'
p255
aS'_mr_shift'
p256
aS'_logb2'
p257
atp258
a(L1510110032L
L0L
(lp259
(lp260
tp261
a(L453717085L
L1650168448L
(lp262
(lp263
tp264
a(L3249209674L
L0L
(lp265
(lp266
tp267
a(L308592729L
L0L
(lp268
(lp269
tp270
a(L971924473L
L3823997730L
(lp271
(lp272
S'_copy'
p273
aS'_mr_shift'
p274
aS'_power'
p275
aS'_divide'
p276
aS'_size'
p277
aS'_subtract'
p278
aS'_size'
p279
aS'_subdiv'
p280
aS'_add'
p281
atp282
a(L2717851019L
L0L
(lp283
(lp284
tp285
a(L2411046083L
L0L
(lp286
(lp287
tp288
a(L2881385518L
L0L
(lp289
(lp290
tp291
a(L237171096L
L0L
(lp292
(lp293
tp294
a(L3547358146L
L0L
(lp295
(lp296
tp297
a(L3026177914L
L0L
(lp298
(lp299
tp300
a(L558565053L
L0L
(lp301
(lp302
tp303
a(L560669111L
L0L
(lp304
(lp305
tp306
a(L2863688646L
L1912178190L
(lp307
(lp308
S'_mr_shift'
p309
atp310
a(L2608993482L
L0L
(lp311
(lp312
tp313
a(L444556283L
L0L
(lp314
(lp315
tp316
a(L897742017L
L0L
(lp317
(lp318
tp319
a(L2707313246L
L0L
(lp320
(lp321
tp322
a(L2805604407L
L3502303610L
(lp323
(lp324
S'_decr'
p325
aS'_power'
p326
aS'_mr_compare'
p327
atp328
a(L3249209674L
L0L
(lp329
(lp330
tp331
a(L388965813L
L0L
(lp332
(lp333
tp334
a(L2250340729L
L1060385270L
(lp335
(lp336
S'_copy'
p337
aS'_insign'
p338
aS'_insign'
p339
atp340
a(L3638389938L
L0L
(lp341
(lp342
tp343
a(L3351156743L
L0L
(lp344
(lp345
tp346
a(L1337990953L
L3438772250L
(lp347
(lp348
S'_copy'
p349
atp350
a(L1419490223L
L0L
(lp351
(lp352
tp353
atp354
sL1892L
(S'_insign'
p355
(lp356
(L425776429L
L0L
(lp357
(lp358
tp359
atp360
sL1896L
(S'_exsign'
p361
(lp362
(L425776429L
L0L
(lp363
(lp364
tp365
atp366
sL240L
(S'_power'
p367
(lp368
(L2103929044L
L1309723220L
(lp369
(lp370
S'_copy'
p371
aS'_zero'
p372
atp373
a(L2864956900L
L3438772250L
(lp374
(lp375
S'_size'
p376
atp377
a(L839780945L
L3438772250L
(lp378
(lp379
S'_convert'
p380
atp381
a(L1182507558L
L2614424152L
(lp382
(lp383
tp384
a(L1643682173L
L1650168448L
(lp385
(lp386
tp387
a(L520110351L
L1912178190L
(lp388
(lp389
S'_mr_track'
p390
atp391
a(L2644043615L
L0L
(lp392
(lp393
tp394
a(L19252179L
L1912178190L
(lp395
(lp396
S'_mr_berror'
p397
atp398
a(L3264014704L
L0L
(lp399
(lp400
tp401
a(L3397929988L
L3991344600L
(lp402
L2147483649L
a(lp403
tp404
a(L2079164816L
L1504367734L
(lp405
L4294967294L
a(lp406
tp407
a(L653184198L
L0L
(lp408
(lp409
tp410
a(L2366787806L
L1912178190L
(lp411
(lp412
S'_multiply'
p413
atp414
a(L1610906230L
L0L
(lp415
(lp416
tp417
a(L615954924L
L0L
(lp418
(lp419
tp420
a(L815387124L
L1912178190L
(lp421
(lp422
S'_multiply'
p423
atp424
a(L228991706L
L2941833480L
(lp425
(lp426
S'_normalise'
p427
aS'_divide'
p428
atp429
a(L2999329760L
L1650168448L
(lp430
(lp431
tp432
a(L520110351L
L1650168448L
(lp433
(lp434
tp435
a(L4285911778L
L3991344600L
(lp436
L2147483649L
a(lp437
tp438
a(L4152316397L
L1504367734L
(lp439
L4294967294L
a(lp440
tp441
a(L653184198L
L0L
(lp442
(lp443
tp444
a(L3569928701L
L1912178190L
(lp445
(lp446
S'_mad'
p447
atp448
a(L1610906230L
L0L
(lp449
(lp450
tp451
a(L615954924L
L0L
(lp452
(lp453
tp454
a(L3780293204L
L3438772250L
(lp455
(lp456
S'_mad'
p457
atp458
a(L3371605109L
L0L
(lp459
(lp460
tp461
a(L217417584L
L3504974572L
(lp462
(lp463
S'_mr_sdiv'
p464
aS'_divide'
p465
atp466
a(L857647540L
L0L
(lp467
(lp468
tp469
a(L1994012262L
L0L
(lp470
(lp471
tp472
atp473
ssS'fuzzydups'
p474
c__builtin__
set
p475
((lp476
tp477
Rp478
sS'stringdups'
p479
g475
((lp480
tp481
Rp482
sS'immediates'
p483
(dp484
L4294967295L
L736L
ssS'formaldups'
p485
g475
((lp486
tp487
Rp488
sS'immediatedups'
p489
g475
((lp490
tp491
Rp492
sS'fuzzy'
p493
(dp494
L669012032L
L240L
sL2923422554L
L736L
sL3723143635L
L0L
ssS'strings'
p495
(dp496
sS'formal'
p497
(dp498
L164475680L
L0L
sL378063401L
L736L
sL304286298L
L240L
ssb.