ccopy_reg
_reconstructor
p0
(c__main__
RizzoSignatures
p1
c__builtin__
object
p2
Ntp3
Rp4
(dp5
S'functions'
p6
(dp7
L0L
(S'_mr_pmul'
p8
(lp9
(L3190267285L
L0L
(lp10
(lp11
tp12
a(L1669038344L
L3438772250L
(lp13
(lp14
S'_zero'
p15
atp16
a(L3249209674L
L0L
(lp17
(lp18
tp19
a(L3249209674L
L0L
(lp20
(lp21
tp22
a(L3038726971L
L0L
(lp23
(lp24
tp25
a(L1592413787L
L3438772250L
(lp26
(lp27
S'_zero'
p28
atp29
a(L1840667549L
L334907509L
(lp30
L2147483648L
aL2147483647L
a(lp31
tp32
a(L1321716694L
L0L
(lp33
(lp34
tp35
a(L2693946426L
L0L
(lp36
(lp37
tp38
a(L386938014L
L0L
(lp39
(lp40
tp41
a(L770259920L
L0L
(lp42
(lp43
tp44
a(L6508328L
L0L
(lp45
(lp46
tp47
a(L4113815926L
L1650168448L
(lp48
(lp49
tp50
a(L52253995L
L1650168448L
(lp51
(lp52
tp53
a(L1884111730L
L3438772250L
(lp54
(lp55
S'_mr_berror'
p56
atp57
a(L1226104303L
L0L
(lp58
(lp59
tp60
a(L2923745396L
L0L
(lp61
(lp62
tp63
a(L3249209674L
L0L
(lp64
(lp65
tp66
a(L477375272L
L0L
(lp67
(lp68
tp69
a(L6508328L
L0L
(lp70
(lp71
tp72
a(L1088558648L
L1650168448L
(lp73
(lp74
tp75
a(L52253995L
L1650168448L
(lp76
(lp77
tp78
a(L1884111730L
L3438772250L
(lp79
(lp80
S'_mr_berror'
p81
atp82
a(L2252643386L
L434665910L
(lp83
(lp84
S'_muldiv'
p85
atp86
a(L2158321913L
L0L
(lp87
(lp88
tp89
a(L2731788335L
L0L
(lp90
(lp91
tp92
a(L328372734L
L0L
(lp93
(lp94
tp95
atp96
sL2240L
(S'_big_to_bytes'
p97
(lp98
(L3974951574L
L1650168448L
(lp99
(lp100
tp101
a(L100104514L
L3438772250L
(lp102
(lp103
S'_size'
p104
atp105
a(L392541731L
L0L
(lp106
(lp107
tp108
a(L3003301633L
L0L
(lp109
(lp110
tp111
a(L1182507558L
L2614424152L
(lp112
(lp113
tp114
a(L2012414127L
L1650168448L
(lp115
(lp116
tp117
a(L1868153140L
L3438772250L
(lp118
(lp119
S'_mr_track'
p120
atp121
a(L1536255086L
L1912178190L
(lp122
(lp123
S'_mr_lzero'
p124
atp125
a(L2030411186L
L3991344598L
(lp126
L2147483647L
a(lp127
tp128
a(L1551197583L
L0L
(lp129
(lp130
tp131
a(L787404650L
L3990344595L
(lp132
L2147483651L
a(lp133
tp134
a(L2509043930L
L1504367728L
(lp135
L4294967292L
a(lp136
tp137
a(L902741904L
L0L
(lp138
(lp139
tp140
a(L547422880L
L0L
(lp141
(lp142
tp143
a(L2635760646L
L0L
(lp144
(lp145
tp146
a(L393736482L
L0L
(lp147
(lp148
tp149
a(L3694281852L
L1650168448L
(lp150
(lp151
tp152
a(L3104462892L
L0L
(lp153
(lp154
tp155
a(L2417360738L
L0L
(lp156
(lp157
tp158
a(L1669803542L
L0L
(lp159
(lp160
tp161
a(L1168003236L
L0L
(lp162
(lp163
tp164
a(L3817567476L
L0L
(lp165
(lp166
tp167
a(L1795816891L
L1650168448L
(lp168
(lp169
tp170
a(L366831826L
L0L
(lp171
(lp172
tp173
a(L3567765467L
L0L
(lp174
(lp175
tp176
a(L3827379915L
L0L
(lp177
(lp178
tp179
a(L2452541002L
L0L
(lp180
(lp181
tp182
a(L1056288871L
L0L
(lp183
(lp184
tp185
a(L1795816891L
L1650168448L
(lp186
(lp187
tp188
a(L2954156512L
L0L
(lp189
(lp190
tp191
a(L455137983L
L0L
(lp192
(lp193
tp194
a(L1035856333L
L0L
(lp195
(lp196
tp197
a(L1378471818L
L1912178190L
(lp198
(lp199
S'_copy'
p200
atp201
a(L1992297838L
L0L
(lp202
(lp203
tp204
a(L849740092L
L3438772250L
(lp205
(lp206
S'_size'
p207
atp208
a(L2635760646L
L0L
(lp209
(lp210
tp211
a(L547422909L
L0L
(lp212
(lp213
tp214
a(L902741904L
L0L
(lp215
(lp216
tp217
a(L886622376L
L0L
(lp218
(lp219
tp220
a(L864755526L
L434665910L
(lp221
(lp222
S'_subdiv'
p223
atp224
a(L3819081131L
L0L
(lp225
(lp226
tp227
a(L2748448966L
L1650168448L
(lp228
(lp229
tp230
a(L3249209674L
L0L
(lp231
(lp232
tp233
a(L149991023L
L1650168448L
(lp234
(lp235
tp236
a(L3596269173L
L0L
(lp237
(lp238
tp239
a(L3309728846L
L1912178190L
(lp240
(lp241
S'_mr_berror'
p242
atp243
a(L1890591993L
L0L
(lp244
(lp245
tp246
atp247
sL3716L
(S'_mr_notint'
p248
(lp249
(L425776429L
L0L
(lp250
(lp251
tp252
atp253
sL3720L
(S'_mr_track'
p254
(lp255
(L425776429L
L0L
(lp256
(lp257
tp258
atp259
sL3724L
(S'_mr_lzero'
p260
(lp261
(L425776429L
L0L
(lp262
(lp263
tp264
atp265
sL3728L
(S'_size'
p266
(lp267
(L425776429L
L0L
(lp268
(lp269
tp270
atp271
sL3732L
(S'_absol'
p272
(lp273
(L425776429L
L0L
(lp274
(lp275
tp276
atp277
sL3736L
(S'_incr'
p278
(lp279
(L425776429L
L0L
(lp280
(lp281
tp282
atp283
sL3740L
(S'_add'
p284
(lp285
(L425776429L
L0L
(lp286
(lp287
tp288
atp289
sL3744L
(S'_mr_addbit'
p290
(lp291
(L425776429L
L0L
(lp292
(lp293
tp294
atp295
sL1392L
(S'_remain'
p296
(lp297
(L3928654435L
L1650168448L
(lp298
(lp299
tp300
a(L1487067245L
L0L
(lp301
(lp302
tp303
a(L3738563475L
L1650168448L
(lp304
(lp305
tp306
a(L3900233354L
L1650168448L
(lp307
(lp308
tp309
a(L520110351L
L1912178190L
(lp310
(lp311
S'_mr_track'
p312
atp313
a(L2506290491L
L3991344601L
(lp314
L2147483648L
a(lp315
tp316
a(L1078705681L
L0L
(lp317
(lp318
tp319
a(L931525932L
L0L
(lp320
(lp321
tp322
a(L1487067245L
L0L
(lp323
(lp324
tp325
a(L826687359L
L0L
(lp326
(lp327
tp328
a(L3574295205L
L0L
(lp329
(lp330
tp331
a(L825050759L
L0L
(lp332
(lp333
tp334
a(L2506515243L
L0L
(lp335
(lp336
tp337
a(L1954364485L
L0L
(lp338
(lp339
tp340
a(L3416107352L
L3551412508L
(lp341
(lp342
S'_copy'
p343
aS'_subdiv'
p344
atp345
a(L1912738883L
L0L
(lp346
(lp347
tp348
atp349
sL3748L
(S'_convert'
p350
(lp351
(L425776429L
L0L
(lp352
(lp353
tp354
atp355
sL944L
(S'_subdiv'
p356
(lp357
(L1233901628L
L1650168448L
(lp358
(lp359
tp360
a(L3221251116L
L0L
(lp361
(lp362
tp363
a(L3738563475L
L1650168448L
(lp364
(lp365
tp366
a(L813609380L
L1650168448L
(lp367
(lp368
tp369
a(L1868153140L
L3438772250L
(lp370
(lp371
S'_mr_track'
p372
atp373
a(L2816389930L
L3438772250L
(lp374
(lp375
S'_mr_notint'
p376
atp377
a(L896650328L
L3438772250L
(lp378
(lp379
S'_mr_berror'
p380
atp381
a(L1572915135L
L0L
(lp382
(lp383
tp384
a(L957121855L
L3438772250L
(lp385
(lp386
S'_mr_berror'
p387
atp388
a(L1206551021L
L1650168448L
(lp389
(lp390
tp391
a(L2210390720L
L0L
(lp392
(lp393
tp394
a(L887254236L
L0L
(lp395
(lp396
tp397
a(L1736307871L
L1912178190L
(lp398
(lp399
S'_zero'
p400
atp401
a(L4283476518L
L0L
(lp402
(lp403
tp404
a(L709977980L
L1912178190L
(lp405
(lp406
S'_copy'
p407
atp408
a(L1390116973L
L3991344601L
(lp409
L2147483648L
a(lp410
tp411
a(L3018587164L
L0L
(lp412
(lp413
tp414
a(L2158538624L
L4269683972L
(lp415
L2147483647L
a(lp416
S'_copy'
p417
atp418
a(L632879864L
L0L
(lp419
(lp420
tp421
a(L1058625944L
L0L
(lp422
(lp423
tp424
a(L3826236372L
L3438772250L
(lp425
(lp426
S'_mr_lzero'
p427
atp428
a(L3652246729L
L1650168448L
(lp429
(lp430
tp431
a(L1399421506L
L0L
(lp432
(lp433
tp434
a(L1499103601L
L0L
(lp435
(lp436
tp437
a(L3379482381L
L3438772250L
(lp438
(lp439
S'_mr_sdiv'
p440
atp441
a(L3201638330L
L3991344601L
(lp442
L2147483648L
a(lp443
tp444
a(L2744416998L
L3438772250L
(lp445
(lp446
S'_mr_sdiv'
p447
atp448
a(L1490912050L
L1650168448L
(lp449
(lp450
tp451
a(L2881385518L
L0L
(lp452
(lp453
tp454
a(L1743730284L
L0L
(lp455
(lp456
tp457
atp458
sL692L
(S'_mr_sdiv'
p459
(lp460
(L3732744463L
L3991344598L
(lp461
L2147483647L
a(lp462
tp463
a(L1230476547L
L3438772250L
(lp464
(lp465
S'_zero'
p466
atp467
a(L998001407L
L1650168448L
(lp468
(lp469
tp470
a(L2641184607L
L0L
(lp471
(lp472
tp473
a(L465641449L
L0L
(lp474
(lp475
tp476
a(L1329858515L
L0L
(lp477
(lp478
tp479
a(L2060167595L
L0L
(lp480
(lp481
tp482
a(L484884206L
L0L
(lp483
(lp484
tp485
a(L712320376L
L0L
(lp486
(lp487
tp488
a(L702182840L
L0L
(lp489
(lp490
tp491
a(L3649893775L
L0L
(lp492
(lp493
tp494
a(L4096782503L
L434665910L
(lp495
(lp496
S'_muldiv'
p497
atp498
a(L3986173766L
L3438772250L
(lp499
(lp500
S'_mr_lzero'
p501
atp502
atp503
sL436L
(S'_premult'
p504
(lp505
(L1806946499L
L1650168448L
(lp506
(lp507
tp508
a(L3738563475L
L1650168448L
(lp509
(lp510
tp511
a(L1782847240L
L1650168448L
(lp512
(lp513
tp514
a(L1868153140L
L3438772250L
(lp515
(lp516
S'_mr_track'
p517
atp518
a(L2878349215L
L3438772250L
(lp519
(lp520
S'_mr_notint'
p521
atp522
a(L2299817343L
L1912178190L
(lp523
(lp524
S'_mr_berror'
p525
atp526
a(L239938037L
L0L
(lp527
(lp528
tp529
a(L173119960L
L1912178190L
(lp530
(lp531
S'_zero'
p532
atp533
a(L2772121965L
L0L
(lp534
(lp535
tp536
a(L1124013631L
L1912178190L
(lp537
(lp538
S'_copy'
p539
atp540
a(L4289458367L
L0L
(lp541
(lp542
tp543
a(L2745172778L
L3438772250L
(lp544
(lp545
S'_mr_pmul'
p546
atp547
a(L985563210L
L3415828523L
(lp548
L2147483648L
a(lp549
tp550
a(L2993705948L
L3438772250L
(lp551
(lp552
S'_mr_pmul'
p553
atp554
a(L3110991158L
L1650168448L
(lp555
(lp556
tp557
a(L2222856904L
L0L
(lp558
(lp559
tp560
atp561
sL1856L
(S'_bytes_to_big'
p562
(lp563
(L4221237127L
L1650168448L
(lp564
(lp565
tp566
a(L3738563475L
L1650168448L
(lp567
(lp568
tp569
a(L69493934L
L1650168448L
(lp570
(lp571
tp572
a(L1868153140L
L3438772250L
(lp573
(lp574
S'_mr_track'
p575
atp576
a(L2019880750L
L3438772250L
(lp577
(lp578
S'_zero'
p579
atp580
a(L1293771860L
L0L
(lp581
(lp582
tp583
a(L1600288088L
L0L
(lp584
(lp585
tp586
a(L1489375523L
L0L
(lp587
(lp588
tp589
a(L998001407L
L1650168448L
(lp590
(lp591
tp592
a(L3772350777L
L3990344595L
(lp593
L2147483651L
a(lp594
tp595
a(L2053931628L
L1504367728L
(lp596
L4294967292L
a(lp597
tp598
a(L2078954459L
L0L
(lp599
(lp600
tp601
a(L1484252788L
L0L
(lp602
(lp603
tp604
a(L182779592L
L0L
(lp605
(lp606
tp607
a(L2741400161L
L0L
(lp608
(lp609
tp610
a(L1149903192L
L1650168448L
(lp611
(lp612
tp613
a(L1266713827L
L0L
(lp614
(lp615
tp616
a(L4187324103L
L1912178190L
(lp617
(lp618
S'_mr_berror'
p619
atp620
a(L3638389938L
L0L
(lp621
(lp622
tp623
a(L2354254573L
L0L
(lp624
(lp625
tp626
a(L790278171L
L0L
(lp627
(lp628
tp629
a(L2292479642L
L0L
(lp630
(lp631
tp632
a(L912005444L
L0L
(lp633
(lp634
tp635
a(L4056775234L
L0L
(lp636
(lp637
tp638
a(L4037420901L
L1912178190L
(lp639
(lp640
S'_mr_lzero'
p641
atp642
a(L1315864634L
L0L
(lp643
(lp644
tp645
a(L3985540784L
L1650168448L
(lp646
(lp647
tp648
a(L549180788L
L1354249480L
(lp649
(lp650
S'_premult'
p651
aS'_incr'
p652
atp653
a(L3110991158L
L1650168448L
(lp654
(lp655
tp656
a(L1743730284L
L0L
(lp657
(lp658
tp659
atp660
sL1616L
(S'_subdivisible'
p661
(lp662
(L3840973591L
L3438772250L
(lp663
(lp664
S'_remain'
p665
atp666
atp667
sL1648L
(S'_hamming'
p668
(lp669
(L489289533L
L1650168448L
(lp670
(lp671
tp672
a(L1310365671L
L0L
(lp673
(lp674
tp675
a(L1767301447L
L1650168448L
(lp676
(lp677
tp678
a(L3492812846L
L1650168448L
(lp679
(lp680
tp681
a(L520110351L
L1912178190L
(lp682
(lp683
S'_mr_track'
p684
atp685
a(L3974929517L
L1190238782L
(lp686
(lp687
S'_copy'
p688
aS'_absol'
p689
aS'_size'
p690
atp691
a(L2361917626L
L1015000508L
(lp692
(lp693
S'_subdiv'
p694
aS'_size'
p695
atp696
a(L3254720068L
L1650168448L
(lp697
(lp698
tp699
atp700
sL2832L
(S'_mr_jsf'
p701
(lp702
(L198938124L
L1650168448L
(lp703
(lp704
tp705
a(L3410574875L
L1650168448L
(lp706
(lp707
tp708
a(L2737871882L
L1650168448L
(lp709
(lp710
tp711
a(L520110351L
L1912178190L
(lp712
(lp713
S'_mr_track'
p714
atp715
a(L3999529570L
L298176858L
(lp716
(lp717
S'_convert'
p718
aS'_copy'
p719
aS'_copy'
p720
aS'_zero'
p721
aS'_zero'
p722
aS'_zero'
p723
aS'_zero'
p724
atp725
a(L3249209674L
L0L
(lp726
(lp727
tp728
a(L942324580L
L0L
(lp729
(lp730
tp731
a(L2021517681L
L3438772250L
(lp732
(lp733
S'_size'
p734
atp735
a(L2635043499L
L0L
(lp736
(lp737
tp738
a(L956437378L
L434665910L
(lp739
(lp740
S'_size'
p741
atp742
a(L3638389938L
L0L
(lp743
(lp744
tp745
a(L430014438L
L3177139412L
(lp746
L2147483649L
a(lp747
S'_remain'
p748
aS'_remain'
p749
atp750
a(L3125598927L
L1504367734L
(lp751
L4294967294L
a(lp752
tp753
a(L3246209545L
L0L
(lp754
(lp755
tp756
a(L3021356618L
L0L
(lp757
(lp758
tp759
a(L3920113803L
L3990344595L
(lp760
L2147483651L
a(lp761
tp762
a(L4243637730L
L1504367728L
(lp763
L4294967292L
a(lp764
tp765
a(L625536098L
L0L
(lp766
(lp767
tp768
a(L1271771578L
L0L
(lp769
(lp770
tp771
a(L3525934238L
L3990344595L
(lp772
L2147483651L
a(lp773
tp774
a(L592898857L
L1504367728L
(lp775
L4294967292L
a(lp776
tp777
a(L4020362822L
L0L
(lp778
(lp779
tp780
a(L2884385639L
L0L
(lp781
(lp782
tp783
a(L2960438190L
L3991344600L
(lp784
L2147483649L
a(lp785
tp786
a(L2079164816L
L1504367734L
(lp787
L4294967294L
a(lp788
tp789
a(L3246209545L
L0L
(lp790
(lp791
tp792
a(L3450262684L
L0L
(lp793
(lp794
tp795
a(L3525934238L
L3990344595L
(lp796
L2147483651L
a(lp797
tp798
a(L592898857L
L1504367728L
(lp799
L4294967292L
a(lp800
tp801
a(L2595603598L
L0L
(lp802
(lp803
tp804
a(L3756884369L
L0L
(lp805
(lp806
tp807
a(L787404650L
L3990344595L
(lp808
L2147483651L
a(lp809
tp810
a(L2509043930L
L1504367728L
(lp811
L4294967292L
a(lp812
tp813
a(L1577258823L
L0L
(lp814
(lp815
tp816
a(L2886385648L
L0L
(lp817
(lp818
tp819
a(L3775244155L
L1650168448L
(lp820
(lp821
tp822
a(L357216L
L0L
(lp823
(lp824
tp825
a(L1126532706L
L3438772250L
(lp826
(lp827
S'_mr_addbit'
p828
atp829
a(L810499191L
L0L
(lp830
(lp831
tp832
a(L2269818591L
L3438772250L
(lp833
(lp834
S'_mr_addbit'
p835
atp836
a(L2637043466L
L0L
(lp837
(lp838
tp839
a(L2269170456L
L3438772250L
(lp840
(lp841
S'_mr_addbit'
p842
atp843
a(L3255209645L
L0L
(lp844
(lp845
tp846
a(L3324695624L
L3438772250L
(lp847
(lp848
S'_mr_addbit'
p849
atp850
a(L357216L
L0L
(lp851
(lp852
tp853
a(L2397686691L
L3438772250L
(lp854
(lp855
S'_add'
p856
atp857
a(L3255209645L
L0L
(lp858
(lp859
tp860
a(L1019826305L
L434665910L
(lp861
(lp862
S'_add'
p863
atp864
a(L2637043466L
L0L
(lp865
(lp866
tp867
a(L544443464L
L434665910L
(lp868
(lp869
S'_add'
p870
atp871
a(L3255209645L
L0L
(lp872
(lp873
tp874
a(L120307926L
L434665910L
(lp875
(lp876
S'_add'
p877
atp878
a(L2259005882L
L0L
(lp879
(lp880
tp881
a(L50767142L
L0L
(lp882
(lp883
tp884
a(L678933513L
L0L
(lp885
(lp886
tp887
a(L3015246446L
L0L
(lp888
(lp889
tp890
a(L3273555571L
L4255254916L
(lp891
(lp892
S'_subdiv'
p893
aS'_subdiv'
p894
atp895
a(L3683687342L
L0L
(lp896
(lp897
tp898
a(L2221316693L
L1912178190L
(lp899
(lp900
S'_premult'
p901
atp902
a(L1271429262L
L0L
(lp903
(lp904
tp905
a(L3568297873L
L0L
(lp906
(lp907
tp908
a(L1795816891L
L1650168448L
(lp909
(lp910
tp911
a(L3688248148L
L0L
(lp912
(lp913
tp914
a(L2691527989L
L0L
(lp915
(lp916
tp917
atp918
sL3696L
(S'_muldiv'
p919
(lp920
(L425776429L
L0L
(lp921
(lp922
tp923
atp924
sL3700L
(S'_mr_berror'
p925
(lp926
(L425776429L
L0L
(lp927
(lp928
tp929
atp930
sL3712L
(S'_copy'
p931
(lp932
(L425776429L
L0L
(lp933
(lp934
tp935
atp936
sL3708L
(S'_zero'
p937
(lp938
(L425776429L
L0L
(lp939
(lp940
tp941
atp942
ssS'fuzzydups'
p943
c__builtin__
set
p944
((lp945
tp946
Rp947
sS'stringdups'
p948
g944
((lp949
tp950
Rp951
sS'immediates'
p952
(dp953
sS'formaldups'
p954
g944
((lp955
tp956
Rp957
sS'immediatedups'
p958
g944
((lp959
tp960
Rp961
sS'fuzzy'
p962
(dp963
L915977893L
L1856L
sL2104760553L
L2832L
sL1362603021L
L692L
sL2734393997L
L1648L
sL4253767251L
L0L
sL1348899861L
L2240L
sL976919382L
L1392L
sL3167135129L
L944L
sL2302400698L
L436L
sL4236096403L
L1616L
ssS'strings'
p964
(dp965
sS'formal'
p966
(dp967
L4100112677L
L0L
sL798185511L
L1648L
sL1945457559L
L1856L
sL2945668685L
L436L
sL881341013L
L1616L
sL1065527831L
L692L
sL3876289016L
L2240L
sL301010330L
L2832L
sL3659490844L
L944L
sL2269909733L
L1392L
ssb.