ccopy_reg
_reconstructor
p0
(c__main__
RizzoSignatures
p1
c__builtin__
object
p2
Ntp3
Rp4
(dp5
S'functions'
p6
(dp7
L0L
(S'_normalise'
p8
(lp9
(L4090034608L
L2614424152L
(lp10
(lp11
tp12
a(L1614745421L
L1650168448L
(lp13
(lp14
tp15
a(L1868153140L
L3438772250L
(lp16
(lp17
S'_mr_track'
p18
atp19
a(L1725483625L
L0L
(lp20
(lp21
tp22
a(L3840279295L
L3438772250L
(lp23
(lp24
S'_copy'
p25
atp26
a(L3226235847L
L2406147410L
(lp27
L2147483647L
a(lp28
tp29
a(L567477985L
L0L
(lp30
(lp31
tp32
a(L1219590460L
L0L
(lp33
(lp34
tp35
a(L2650295869L
L3438772250L
(lp36
(lp37
S'_muldvm'
p38
atp39
a(L3249209674L
L0L
(lp40
(lp41
tp42
a(L2003951066L
L0L
(lp43
(lp44
tp45
a(L3189989754L
L3438772250L
(lp46
(lp47
S'_mr_pmul'
p48
atp49
a(L3017229877L
L1650168448L
(lp50
(lp51
tp52
atp53
sL4640L
(S'_mr_pmul'
p54
(lp55
(L425776429L
L0L
(lp56
(lp57
tp58
atp59
sL4696L
(S'_size'
p60
(lp61
(L425776429L
L0L
(lp62
(lp63
tp64
atp65
sL4644L
(S'_muldvm'
p66
(lp67
(L425776429L
L0L
(lp68
(lp69
tp70
atp71
sL4700L
(S'_add'
p72
(lp73
(L425776429L
L0L
(lp74
(lp75
tp76
atp77
sL4664L
(S'_mr_padd'
p78
(lp79
(L425776429L
L0L
(lp80
(lp81
tp82
atp83
sL4648L
(S'_copy'
p84
(lp85
(L425776429L
L0L
(lp86
(lp87
tp88
atp89
sL4684L
(S'_mr_sdiv'
p90
(lp91
(L425776429L
L0L
(lp92
(lp93
tp94
atp95
sL4692L
(S'_mr_compare'
p96
(lp97
(L425776429L
L0L
(lp98
(lp99
tp100
atp101
sL4652L
(S'_mr_track'
p102
(lp103
(L425776429L
L0L
(lp104
(lp105
tp106
atp107
sL4680L
(S'_zero'
p108
(lp109
(L425776429L
L0L
(lp110
(lp111
tp112
atp113
sL208L
(S'_multiply'
p114
(lp115
(L3325071576L
L1650168448L
(lp116
(lp117
tp118
a(L3249209674L
L0L
(lp119
(lp120
tp121
a(L2163800981L
L0L
(lp122
(lp123
tp124
a(L1979244228L
L0L
(lp125
(lp126
tp127
a(L3304466127L
L3438772250L
(lp128
(lp129
S'_zero'
p130
atp131
a(L1922200238L
L1650168448L
(lp132
(lp133
tp134
a(L2728127830L
L1650168448L
(lp135
(lp136
tp137
a(L2259138804L
L1650168448L
(lp138
(lp139
tp140
a(L3276349792L
L1650168448L
(lp141
(lp142
tp143
a(L292334583L
L1650168448L
(lp144
(lp145
tp146
a(L543594566L
L432033468L
(lp147
(lp148
tp149
a(L1246338305L
L432033468L
(lp150
(lp151
tp152
a(L1868153140L
L3438772250L
(lp153
(lp154
S'_mr_track'
p155
atp156
a(L1227143778L
L3438772250L
(lp157
(lp158
S'_mr_notint'
p159
atp160
a(L1556764375L
L3438772250L
(lp161
(lp162
S'_mr_notint'
p163
atp164
a(L2877663677L
L609169042L
(lp165
(lp166
S'_mr_berror'
p167
atp168
a(L1798582095L
L2100371342L
(lp169
L2147483648L
aL2147483648L
aL2147483647L
aL2147483647L
a(lp170
S'_zero'
p171
atp172
a(L783650977L
L1650168448L
(lp173
(lp174
tp175
a(L1115056813L
L609169042L
(lp176
(lp177
S'_mr_berror'
p178
atp179
a(L3819540477L
L1650168448L
(lp180
(lp181
tp182
a(L3534798294L
L0L
(lp183
(lp184
tp185
a(L4091899714L
L0L
(lp186
(lp187
tp188
a(L4275555160L
L0L
(lp189
(lp190
tp191
a(L2817118714L
L0L
(lp192
(lp193
tp194
a(L3581327640L
L0L
(lp195
(lp196
tp197
a(L3866284372L
L0L
(lp198
(lp199
tp200
a(L3632212201L
L0L
(lp201
(lp202
tp203
a(L1514709564L
L0L
(lp204
(lp205
tp206
a(L267420311L
L0L
(lp207
(lp208
tp209
a(L2570211643L
L0L
(lp210
(lp211
tp212
a(L2398125474L
L0L
(lp213
(lp214
tp215
a(L4250649644L
L0L
(lp216
(lp217
tp218
a(L3249209674L
L0L
(lp219
(lp220
tp221
a(L4275555160L
L0L
(lp222
(lp223
tp224
a(L2982193247L
L0L
(lp225
(lp226
tp227
a(L564499180L
L0L
(lp228
(lp229
tp230
a(L2135012882L
L0L
(lp231
(lp232
tp233
a(L3632212201L
L0L
(lp234
(lp235
tp236
a(L1514709564L
L0L
(lp237
(lp238
tp239
a(L3249209674L
L0L
(lp240
(lp241
tp242
a(L3706012083L
L0L
(lp243
(lp244
tp245
a(L4091899714L
L0L
(lp246
(lp247
tp248
a(L4275555160L
L0L
(lp249
(lp250
tp251
a(L2982193247L
L0L
(lp252
(lp253
tp254
a(L251661849L
L0L
(lp255
(lp256
tp257
a(L3017775995L
L0L
(lp258
(lp259
tp260
a(L1787294027L
L0L
(lp261
(lp262
tp263
a(L298682490L
L0L
(lp264
(lp265
tp266
a(L2626799425L
L434665910L
(lp267
(lp268
S'_muldiv'
p269
atp270
a(L40932146L
L0L
(lp271
(lp272
tp273
a(L4230953775L
L3438772250L
(lp274
(lp275
S'_mr_padd'
p276
atp277
a(L1531478009L
L0L
(lp278
(lp279
tp280
a(L55522508L
L0L
(lp281
(lp282
tp283
a(L2479068974L
L4079538650L
(lp284
(lp285
S'_muldiv'
p286
atp287
a(L2388765080L
L1650168448L
(lp288
(lp289
tp290
a(L3249209674L
L0L
(lp291
(lp292
tp293
a(L3249209674L
L0L
(lp294
(lp295
tp296
a(L4275555160L
L0L
(lp297
(lp298
tp299
a(L2982193247L
L0L
(lp300
(lp301
tp302
a(L564499180L
L0L
(lp303
(lp304
tp305
a(L258240950L
L0L
(lp306
(lp307
tp308
a(L2290087361L
L0L
(lp309
(lp310
tp311
a(L1487197150L
L0L
(lp312
(lp313
tp314
a(L2876794032L
L434665910L
(lp315
(lp316
S'_muldiv'
p317
atp318
a(L4194934235L
L0L
(lp319
(lp320
tp321
a(L3813007374L
L768734920L
(lp322
(lp323
S'_mr_lzero'
p324
aS'_copy'
p325
atp326
a(L328372734L
L0L
(lp327
(lp328
tp329
atp330
sL4344L
(S'_mad'
p331
(lp332
(L3500739198L
L1650168448L
(lp333
(lp334
tp335
a(L1127135805L
L1650168448L
(lp336
(lp337
tp338
a(L1844619650L
L1650168448L
(lp339
(lp340
tp341
a(L520110351L
L1912178190L
(lp342
(lp343
S'_mr_track'
p344
atp345
a(L1097906365L
L0L
(lp346
(lp347
tp348
a(L1668551530L
L1912178190L
(lp349
(lp350
S'_mr_berror'
p351
atp352
a(L1417848837L
L434665910L
(lp353
(lp354
S'_multiply'
p355
atp356
a(L4073258753L
L0L
(lp357
(lp358
tp359
a(L14023036L
L434665910L
(lp360
(lp361
S'_add'
p362
atp363
a(L3444918209L
L434665910L
(lp364
(lp365
S'_divide'
p366
atp367
a(L63878006L
L434665910L
(lp368
(lp369
S'_copy'
p370
atp371
a(L4154432854L
L2614424152L
(lp372
(lp373
tp374
a(L3896111515L
L0L
(lp375
(lp376
tp377
atp378
sL4688L
(S'_mr_psub'
p379
(lp380
(L425776429L
L0L
(lp381
(lp382
tp383
atp384
sL1652L
(S'_divide'
p385
(lp386
(L2172753291L
L1650168448L
(lp387
(lp388
tp389
a(L3249209674L
L0L
(lp390
(lp391
tp392
a(L2385472800L
L1058105080L
(lp393
(lp394
tp395
a(L3201689661L
L432033468L
(lp396
(lp397
tp398
a(L1868153140L
L3438772250L
(lp399
(lp400
S'_mr_track'
p401
atp402
a(L896715349L
L0L
(lp403
(lp404
tp405
a(L883222028L
L3438772250L
(lp406
(lp407
S'_mr_berror'
p408
atp409
a(L4046353470L
L3438772250L
(lp410
(lp411
S'_mr_notint'
p412
atp413
a(L1233390647L
L3438772250L
(lp414
(lp415
S'_mr_notint'
p416
atp417
a(L896650328L
L3438772250L
(lp418
(lp419
S'_mr_berror'
p420
atp421
a(L338171152L
L0L
(lp422
(lp423
tp424
a(L957121855L
L3438772250L
(lp425
(lp426
S'_mr_berror'
p427
atp428
a(L954935071L
L1650168448L
(lp429
(lp430
tp431
a(L1733903535L
L2614424152L
(lp432
(lp433
tp434
a(L1758502054L
L2100371342L
(lp435
L2147483648L
aL2147483648L
aL2147483647L
aL2147483647L
a(lp436
S'_copy'
p437
atp438
a(L2534169509L
L1650168448L
(lp439
(lp440
tp441
a(L1951475883L
L609169042L
(lp442
(lp443
S'_mr_berror'
p444
atp445
a(L354751638L
L0L
(lp446
(lp447
tp448
a(L1923508041L
L0L
(lp449
(lp450
tp451
a(L2928712029L
L3438772250L
(lp452
(lp453
S'_mr_lzero'
p454
atp455
a(L31382877L
L0L
(lp456
(lp457
tp458
a(L4083733428L
L3438772250L
(lp459
(lp460
S'_mr_compare'
p461
atp462
a(L495670251L
L3438772250L
(lp463
(lp464
S'_mr_psub'
p465
atp466
a(L646850441L
L3438772250L
(lp467
(lp468
S'_mr_compare'
p469
atp470
a(L3991128428L
L0L
(lp471
(lp472
tp473
a(L3994486211L
L3438772250L
(lp474
(lp475
S'_copy'
p476
atp477
a(L4227069975L
L0L
(lp478
(lp479
tp480
a(L1094413678L
L0L
(lp481
(lp482
tp483
a(L4216562650L
L3438772250L
(lp484
(lp485
S'_zero'
p486
atp487
a(L3454250917L
L0L
(lp488
(lp489
tp490
a(L3415877458L
L2614424152L
(lp491
(lp492
tp493
a(L541687998L
L0L
(lp494
(lp495
tp496
a(L1836097758L
L3438772250L
(lp497
(lp498
S'_mr_sdiv'
p499
atp500
a(L1997991498L
L3438772250L
(lp501
(lp502
S'_copy'
p503
atp504
a(L3582657250L
L0L
(lp505
(lp506
tp507
a(L2473833014L
L3438772250L
(lp508
(lp509
S'_zero'
p510
atp511
a(L3871331706L
L0L
(lp512
(lp513
tp514
a(L3415877458L
L2614424152L
(lp515
(lp516
tp517
a(L189992732L
L0L
(lp518
(lp519
tp520
a(L2547600223L
L3438772250L
(lp521
(lp522
S'_zero'
p523
atp524
a(L3950194104L
L1093379658L
(lp525
(lp526
S'_normalise'
p527
atp528
a(L1986055997L
L0L
(lp529
(lp530
tp531
a(L2975532510L
L3438772250L
(lp532
(lp533
S'_mr_pmul'
p534
atp535
a(L2061958059L
L0L
(lp536
(lp537
tp538
a(L2744603410L
L0L
(lp539
(lp540
tp541
a(L1766484638L
L0L
(lp542
(lp543
tp544
a(L3673393818L
L0L
(lp545
(lp546
tp547
a(L3635274242L
L1504367735L
(lp548
L4294967295L
a(lp549
tp550
a(L3249209674L
L0L
(lp551
(lp552
tp553
a(L3437882576L
L0L
(lp554
(lp555
tp556
a(L718979606L
L0L
(lp557
(lp558
tp559
a(L3246209545L
L0L
(lp560
(lp561
tp562
a(L581597005L
L0L
(lp563
(lp564
tp565
a(L560000663L
L0L
(lp566
(lp567
tp568
a(L291199136L
L0L
(lp569
(lp570
tp571
a(L3516539997L
L0L
(lp572
(lp573
tp574
a(L822384206L
L0L
(lp575
(lp576
tp577
a(L2570953551L
L0L
(lp578
(lp579
tp580
a(L2061146096L
L0L
(lp581
(lp582
tp583
a(L955836267L
L0L
(lp584
(lp585
tp586
a(L636562509L
L0L
(lp587
(lp588
tp589
a(L787594044L
L0L
(lp590
(lp591
tp592
a(L1509830309L
L0L
(lp593
(lp594
tp595
a(L3998542542L
L0L
(lp596
(lp597
tp598
a(L1509830308L
L0L
(lp599
(lp600
tp601
a(L2655837308L
L0L
(lp602
(lp603
tp604
a(L3203089437L
L0L
(lp605
(lp606
tp607
a(L3049762655L
L0L
(lp608
(lp609
tp610
a(L1556961477L
L0L
(lp611
(lp612
tp613
a(L3534017893L
L0L
(lp614
(lp615
tp616
a(L2521485224L
L0L
(lp617
(lp618
tp619
a(L2933308096L
L0L
(lp620
(lp621
tp622
a(L2075261088L
L0L
(lp623
(lp624
tp625
a(L3249209674L
L0L
(lp626
(lp627
tp628
a(L3249209674L
L0L
(lp629
(lp630
tp631
a(L1986055997L
L0L
(lp632
(lp633
tp634
a(L1584072430L
L3438772250L
(lp635
(lp636
S'_mr_pmul'
p637
atp638
a(L28325629L
L0L
(lp639
(lp640
tp641
a(L2744603410L
L0L
(lp642
(lp643
tp644
a(L1766484638L
L0L
(lp645
(lp646
tp647
a(L3938665398L
L0L
(lp648
(lp649
tp650
a(L512496253L
L1650168448L
(lp651
(lp652
tp653
a(L1511952382L
L434665910L
(lp654
(lp655
S'_muldiv'
p656
atp657
a(L3221261520L
L1650168448L
(lp658
(lp659
tp660
a(L3874171069L
L434665910L
(lp661
(lp662
S'_muldiv'
p663
atp664
a(L425268511L
L0L
(lp665
(lp666
tp667
a(L3390592595L
L0L
(lp668
(lp669
tp670
a(L3249209674L
L0L
(lp671
(lp672
tp673
a(L900377592L
L0L
(lp674
(lp675
tp676
a(L2416860591L
L0L
(lp677
(lp678
tp679
a(L3408257485L
L0L
(lp680
(lp681
tp682
a(L955836267L
L0L
(lp683
(lp684
tp685
a(L636562509L
L0L
(lp686
(lp687
tp688
a(L223521106L
L434665910L
(lp689
(lp690
S'_muldiv'
p691
atp692
a(L533343672L
L1650168448L
(lp693
(lp694
tp695
a(L1363708554L
L0L
(lp696
(lp697
tp698
a(L3249209674L
L0L
(lp699
(lp700
tp701
a(L3909381849L
L0L
(lp702
(lp703
tp704
a(L1064658728L
L0L
(lp705
(lp706
tp707
a(L601544666L
L0L
(lp708
(lp709
tp710
a(L1194463861L
L0L
(lp711
(lp712
tp713
a(L1177731520L
L1650168448L
(lp714
(lp715
tp716
a(L450857167L
L1650168448L
(lp717
(lp718
tp719
a(L2655837308L
L0L
(lp720
(lp721
tp722
a(L3203089437L
L0L
(lp723
(lp724
tp725
a(L3049762655L
L0L
(lp726
(lp727
tp728
a(L1556961477L
L0L
(lp729
(lp730
tp731
a(L3534017893L
L0L
(lp732
(lp733
tp734
a(L2521485224L
L0L
(lp735
(lp736
tp737
a(L2933308096L
L0L
(lp738
(lp739
tp740
a(L2075261088L
L0L
(lp741
(lp742
tp743
a(L3249209674L
L0L
(lp744
(lp745
tp746
a(L189992732L
L0L
(lp747
(lp748
tp749
a(L50484965L
L0L
(lp750
(lp751
tp752
a(L3346195635L
L1354249480L
(lp753
(lp754
S'_mr_lzero'
p755
aS'_mr_lzero'
p756
atp757
a(L2151198414L
L3438772250L
(lp758
(lp759
S'_mr_lzero'
p760
atp761
a(L2040189822L
L3438772250L
(lp762
(lp763
S'_mr_sdiv'
p764
atp765
a(L360175258L
L3438772250L
(lp766
(lp767
S'_copy'
p768
atp769
a(L3892712385L
L0L
(lp770
(lp771
tp772
a(L615213043L
L0L
(lp773
(lp774
tp775
a(L1986055997L
L0L
(lp776
(lp777
tp778
a(L3546353008L
L3438772250L
(lp779
(lp780
S'_mr_sdiv'
p781
atp782
a(L1697911312L
L432033468L
(lp783
(lp784
tp785
a(L328372734L
L0L
(lp786
(lp787
tp788
atp789
sL4676L
(S'_mr_notint'
p790
(lp791
(L425776429L
L0L
(lp792
(lp793
tp794
atp795
sL4184L
(S'_divisible'
p796
(lp797
(L489289533L
L1650168448L
(lp798
(lp799
tp800
a(L1310365671L
L0L
(lp801
(lp802
tp803
a(L2622929612L
L1650168448L
(lp804
(lp805
tp806
a(L3080972611L
L1650168448L
(lp807
(lp808
tp809
a(L520110351L
L1912178190L
(lp810
(lp811
S'_mr_track'
p812
atp813
a(L4225927189L
L1654919314L
(lp814
(lp815
S'_copy'
p816
aS'_divide'
p817
aS'_size'
p818
atp819
atp820
sL4660L
(S'_mr_lzero'
p821
(lp822
(L425776429L
L0L
(lp823
(lp824
tp825
atp826
sL4668L
(S'_muldiv'
p827
(lp828
(L425776429L
L0L
(lp829
(lp830
tp831
atp832
sL4672L
(S'_mr_berror'
p833
(lp834
(L425776429L
L0L
(lp835
(lp836
tp837
atp838
ssS'fuzzydups'
p839
c__builtin__
set
p840
((lp841
tp842
Rp843
sS'stringdups'
p844
g840
((lp845
tp846
Rp847
sS'immediates'
p848
(dp849
L4294967295L
L1652L
ssS'formaldups'
p850
g840
((lp851
tp852
Rp853
sS'immediatedups'
p854
g840
((lp855
tp856
Rp857
sS'fuzzy'
p858
(dp859
L2510945479L
L1652L
sL2967547240L
L4184L
sL2698572075L
L4344L
sL736835791L
L0L
sL1919770205L
L208L
ssS'strings'
p860
(dp861
sS'formal'
p862
(dp863
L627792068L
L208L
sL2407837711L
L4184L
sL1716941750L
L1652L
sL1268998359L
L4344L
sL3209015709L
L0L
ssb.