ccopy_reg
_reconstructor
p0
(c__main__
RizzoSignatures
p1
c__builtin__
object
p2
Ntp3
Rp4
(dp5
S'functions'
p6
(dp7
L0L
(S'_logb2'
p8
(lp9
(L3997299895L
L1650168448L
(lp10
(lp11
tp12
a(L3430721419L
L3438772250L
(lp13
(lp14
S'_size'
p15
atp16
a(L4047280776L
L2614424152L
(lp17
(lp18
tp19
a(L2102326899L
L1650168448L
(lp20
(lp21
tp22
a(L520110351L
L1912178190L
(lp23
(lp24
S'_mr_track'
p25
atp26
a(L583524880L
L0L
(lp27
(lp28
tp29
a(L2407939394L
L3991344598L
(lp30
L2147483647L
a(lp31
tp32
a(L518556227L
L0L
(lp33
(lp34
tp35
a(L584905144L
L0L
(lp36
(lp37
tp38
a(L1929516184L
L3551412508L
(lp39
(lp40
S'_copy'
p41
aS'_insign'
p42
atp43
a(L2433214989L
L1912178190L
(lp44
(lp45
S'_mr_sdiv'
p46
atp47
a(L2115425661L
L0L
(lp48
(lp49
tp50
a(L1610349306L
L1650168448L
(lp51
(lp52
tp53
a(L584905144L
L0L
(lp54
(lp55
tp56
a(L2295887498L
L0L
(lp57
(lp58
tp59
atp60
sL320L
(S'_sftbit'
p61
(lp62
(L3768737222L
L1650168448L
(lp63
(lp64
tp65
a(L1565113716L
L3438772250L
(lp66
(lp67
S'_copy'
p68
atp69
a(L2563212370L
L2614424152L
(lp70
(lp71
tp72
a(L1676896355L
L1650168448L
(lp73
(lp74
tp75
a(L520110351L
L1912178190L
(lp76
(lp77
S'_mr_track'
p78
atp79
a(L3528579745L
L0L
(lp80
(lp81
tp82
a(L2886385648L
L0L
(lp83
(lp84
tp85
a(L571631796L
L1912178190L
(lp86
(lp87
S'_mr_shiftbits'
p88
atp89
a(L3523212020L
L0L
(lp90
(lp91
tp92
a(L2554426449L
L3504974572L
(lp93
(lp94
S'_mr_shift'
p95
aS'_mr_pmul'
p96
atp97
a(L1562097034L
L3551412508L
(lp98
(lp99
S'_expb2'
p100
aS'_multiply'
p101
atp102
a(L2574887008L
L0L
(lp103
(lp104
tp105
a(L2554426449L
L3504974572L
(lp106
(lp107
S'_mr_shift'
p108
aS'_mr_sdiv'
p109
atp110
a(L2868099816L
L3551412508L
(lp111
(lp112
S'_expb2'
p113
aS'_divide'
p114
atp115
a(L1912738883L
L0L
(lp116
(lp117
tp118
atp119
sL1284L
(S'_insign'
p120
(lp121
(L425776429L
L0L
(lp122
(lp123
tp124
atp125
sL992L
(S'_bigbits'
p126
(lp127
(L2697624334L
L1912178190L
(lp128
(lp129
S'_zero'
p130
atp131
a(L3887063934L
L0L
(lp132
(lp133
tp134
a(L3849737131L
L1650168448L
(lp135
(lp136
tp137
a(L902595276L
L1650168448L
(lp138
(lp139
tp140
a(L520110351L
L1912178190L
(lp141
(lp142
S'_mr_track'
p143
atp144
a(L1303203174L
L1912178190L
(lp145
(lp146
S'_expb2'
p147
atp148
a(L2813266649L
L1912178190L
(lp149
(lp150
S'_brand'
p151
atp152
a(L675225609L
L0L
(lp153
(lp154
tp155
a(L2479193819L
L0L
(lp156
(lp157
tp158
a(L457681837L
L0L
(lp159
(lp160
tp161
a(L2692399027L
L1650168448L
(lp162
(lp163
tp164
a(L2044072863L
L1912178190L
(lp165
(lp166
S'_mr_lzero'
p167
atp168
a(L3344600160L
L1912178190L
(lp169
(lp170
S'_divide'
p171
atp172
a(L2222856904L
L0L
(lp173
(lp174
tp175
atp176
sL1288L
(S'_copy'
p177
(lp178
(L425776429L
L0L
(lp179
(lp180
tp181
atp182
sL1296L
(S'_size'
p183
(lp184
(L425776429L
L0L
(lp185
(lp186
tp187
atp188
sL1292L
(S'_mr_track'
p189
(lp190
(L425776429L
L0L
(lp191
(lp192
tp193
atp194
sL1328L
(S'_convert'
p195
(lp196
(L425776429L
L0L
(lp197
(lp198
tp199
atp200
sL1280L
(S'_mr_sdiv'
p201
(lp202
(L425776429L
L0L
(lp203
(lp204
tp205
atp206
sL1312L
(S'_mr_pmul'
p207
(lp208
(L425776429L
L0L
(lp209
(lp210
tp211
atp212
sL688L
(S'_expb2'
p213
(lp214
(L3401534617L
L1650168448L
(lp215
(lp216
tp217
a(L4012474796L
L3438772250L
(lp218
(lp219
S'_convert'
p220
atp221
a(L703222587L
L2614424152L
(lp222
(lp223
tp224
a(L3959496809L
L1650168448L
(lp225
(lp226
tp227
a(L520110351L
L1912178190L
(lp228
(lp229
S'_mr_track'
p230
atp231
a(L4290324433L
L0L
(lp232
(lp233
tp234
a(L19252179L
L1912178190L
(lp235
(lp236
S'_mr_berror'
p237
atp238
a(L3575624059L
L0L
(lp239
(lp240
tp241
a(L3843742024L
L3504974572L
(lp242
(lp243
S'_mr_shift'
p244
aS'_mr_shiftbits'
p245
atp246
a(L3371605091L
L0L
(lp247
(lp248
tp249
a(L3249209674L
L0L
(lp250
(lp251
tp252
a(L1795816891L
L1650168448L
(lp253
(lp254
tp255
a(L3645545221L
L3438772250L
(lp256
(lp257
S'_mr_pmul'
p258
atp259
a(L1131823808L
L3504974572L
(lp260
(lp261
S'_mr_shiftbits'
p262
aS'_mr_pmul'
p263
atp264
a(L1994012262L
L0L
(lp265
(lp266
tp267
atp268
sL1320L
(S'_mr_shiftbits'
p269
(lp270
(L425776429L
L0L
(lp271
(lp272
tp273
atp274
sL1332L
(S'_mr_lzero'
p275
(lp276
(L425776429L
L0L
(lp277
(lp278
tp279
atp280
sL1340L
(S'_zero'
p281
(lp282
(L425776429L
L0L
(lp283
(lp284
tp285
atp286
sL1324L
(S'_mr_berror'
p287
(lp288
(L425776429L
L0L
(lp289
(lp290
tp291
atp292
sL1304L
(S'_divide'
p293
(lp294
(L425776429L
L0L
(lp295
(lp296
tp297
atp298
sL1316L
(S'_mr_shift'
p299
(lp300
(L425776429L
L0L
(lp301
(lp302
tp303
atp304
sL1308L
(S'_multiply'
p305
(lp306
(L425776429L
L0L
(lp307
(lp308
tp309
atp310
sL1336L
(S'_brand'
p311
(lp312
(L425776429L
L0L
(lp313
(lp314
tp315
atp316
ssS'fuzzydups'
p317
c__builtin__
set
p318
((lp319
tp320
Rp321
sS'stringdups'
p322
g318
((lp323
tp324
Rp325
sS'immediates'
p326
(dp327
L2147483647L
L0L
ssS'formaldups'
p328
g318
((lp329
tp330
Rp331
sS'immediatedups'
p332
g318
((lp333
tp334
Rp335
sS'fuzzy'
p336
(dp337
L1752705248L
L992L
sL361913729L
L320L
sL3714207790L
L0L
sL1447369769L
L688L
ssS'strings'
p338
(dp339
sS'formal'
p340
(dp341
L180449479L
L992L
sL2729325967L
L320L
sL1718046939L
L688L
sL2096754967L
L0L
ssb.