ccopy_reg
_reconstructor
p0
(c__main__
RizzoSignatures
p1
c__builtin__
object
p2
Ntp3
Rp4
(dp5
S'functions'
p6
(dp7
L0L
(S'_build'
p8
(lp9
(L1777836646L
L1650168448L
(lp10
(lp11
tp12
a(L278084184L
L1650168448L
(lp13
(lp14
tp15
a(L2841776551L
L1650168448L
(lp16
(lp17
tp18
a(L520110351L
L1912178190L
(lp19
(lp20
S'_mr_track'
p21
atp22
a(L1678537555L
L1073147704L
(lp23
(lp24
S'_zero'
p25
aS'_convert'
p26
aS'_convert'
p27
aS'_zero'
p28
atp29
a(L1683558167L
L0L
(lp30
(lp31
tp32
a(L3844140819L
L0L
(lp33
(lp34
tp35
a(L2561546742L
L0L
(lp36
(lp37
tp38
a(L3249209674L
L0L
(lp39
(lp40
tp41
a(L1769152852L
L0L
(lp42
(lp43
tp44
a(L3690677413L
L0L
(lp45
(lp46
tp47
a(L2310796012L
L3667354999L
(lp48
L1073741824L
a(lp49
tp50
a(L1987381966L
L0L
(lp51
(lp52
tp53
a(L1125381161L
L0L
(lp54
(lp55
tp56
a(L3504939734L
L1912178190L
(lp57
(lp58
S'_convert'
p59
atp60
a(L3789553369L
L0L
(lp61
(lp62
tp63
a(L2133931592L
L3208884122L
(lp64
L2147483647L
a(lp65
S'_multiply'
p66
aS'_subtract'
p67
atp68
a(L1548923920L
L1841046768L
(lp69
L2147483647L
a(lp70
S'_copy'
p71
aS'_multiply'
p72
aS'_subtract'
p73
atp74
a(L1631813530L
L1093379658L
(lp75
(lp76
S'_copy'
p77
atp78
a(L2201452844L
L1654849084L
(lp79
L2147483647L
aL2147483647L
a(lp80
tp81
a(L397663234L
L0L
(lp82
(lp83
tp84
a(L1095761199L
L0L
(lp85
(lp86
tp87
a(L897348702L
L0L
(lp88
(lp89
tp90
a(L1575113381L
L0L
(lp91
(lp92
tp93
a(L3412728614L
L0L
(lp94
(lp95
tp96
a(L2171694267L
L0L
(lp97
(lp98
tp99
a(L2146872317L
L0L
(lp100
(lp101
tp102
a(L1079877223L
L1912178190L
(lp103
(lp104
S'_muldvm'
p105
atp106
a(L1653563060L
L0L
(lp107
(lp108
tp109
a(L1817039580L
L0L
(lp110
(lp111
tp112
a(L2384295007L
L3438772250L
(lp113
(lp114
S'_muldvm'
p115
atp116
a(L312578763L
L0L
(lp117
(lp118
tp119
a(L3718428286L
L0L
(lp120
(lp121
tp122
a(L1967158225L
L0L
(lp123
(lp124
tp125
a(L2024346698L
L0L
(lp126
(lp127
tp128
a(L877244987L
L0L
(lp129
(lp130
tp131
a(L247437915L
L0L
(lp132
(lp133
tp134
a(L2160408871L
L0L
(lp135
(lp136
tp137
a(L2454652699L
L0L
(lp138
(lp139
tp140
a(L2883385512L
L0L
(lp141
(lp142
tp143
a(L98345174L
L3667354999L
(lp144
L1073741824L
a(lp145
tp146
a(L4016413058L
L0L
(lp147
(lp148
tp149
a(L2005283763L
L0L
(lp150
(lp151
tp152
a(L3105020441L
L0L
(lp153
(lp154
tp155
a(L350286730L
L0L
(lp156
(lp157
tp158
a(L247437914L
L0L
(lp159
(lp160
tp161
a(L97083075L
L198940264L
(lp162
(lp163
S'_premult'
p164
aS'_premult'
p165
aS'_premult'
p166
aS'_premult'
p167
aS'_add'
p168
aS'_add'
p169
aS'_premult'
p170
aS'_premult'
p171
aS'_premult'
p172
aS'_premult'
p173
aS'_add'
p174
aS'_add'
p175
atp176
a(L304088705L
L1650168448L
(lp177
(lp178
tp179
a(L3249209674L
L0L
(lp180
(lp181
tp182
a(L1162312879L
L768734920L
(lp183
(lp184
S'_fpack'
p185
aS'_negify'
p186
atp187
a(L2653595416L
L0L
(lp188
(lp189
tp190
a(L1769152852L
L0L
(lp191
(lp192
tp193
a(L658020268L
L1912178190L
(lp194
(lp195
S'_fit'
p196
atp197
a(L2644277082L
L0L
(lp198
(lp199
tp200
a(L118195525L
L0L
(lp201
(lp202
tp203
a(L1687982456L
L4272034043L
(lp204
L4294967295L
a(lp205
S'_fpack'
p206
aS'_negify'
p207
atp208
a(L4236884773L
L1650168448L
(lp209
(lp210
tp211
a(L3110991158L
L1650168448L
(lp212
(lp213
tp214
a(L2017594120L
L0L
(lp215
(lp216
tp217
atp218
sL1536L
(S'_fit'
p219
(lp220
(L425776429L
L0L
(lp221
(lp222
tp223
atp224
sL1540L
(S'_negify'
p225
(lp226
(L425776429L
L0L
(lp227
(lp228
tp229
atp230
sL1544L
(S'_fpack'
p231
(lp232
(L425776429L
L0L
(lp233
(lp234
tp235
atp236
sL1580L
(S'_mr_track'
p237
(lp238
(L425776429L
L0L
(lp239
(lp240
tp241
atp242
sL1548L
(S'_add'
p243
(lp244
(L425776429L
L0L
(lp245
(lp246
tp247
atp248
sL1552L
(S'_premult'
p249
(lp250
(L425776429L
L0L
(lp251
(lp252
tp253
atp254
sL1576L
(S'_zero'
p255
(lp256
(L425776429L
L0L
(lp257
(lp258
tp259
atp260
sL1556L
(S'_muldvm'
p261
(lp262
(L425776429L
L0L
(lp263
(lp264
tp265
atp266
sL1568L
(S'_multiply'
p267
(lp268
(L425776429L
L0L
(lp269
(lp270
tp271
atp272
sL1560L
(S'_copy'
p273
(lp274
(L425776429L
L0L
(lp275
(lp276
tp277
atp278
sL1572L
(S'_convert'
p279
(lp280
(L425776429L
L0L
(lp281
(lp282
tp283
atp284
sL1564L
(S'_subtract'
p285
(lp286
(L425776429L
L0L
(lp287
(lp288
tp289
atp290
ssS'fuzzydups'
p291
c__builtin__
set
p292
((lp293
tp294
Rp295
sS'stringdups'
p296
g292
((lp297
tp298
Rp299
sS'immediates'
p300
(dp301
L4294967295L
L0L
ssS'formaldups'
p302
g292
((lp303
tp304
Rp305
sS'immediatedups'
p306
g292
((lp307
tp308
Rp309
sS'fuzzy'
p310
(dp311
L1173544798L
L0L
ssS'strings'
p312
(dp313
sS'formal'
p314
(dp315
L4108560021L
L0L
ssb.