ccopy_reg
_reconstructor
p0
(c__main__
RizzoSignatures
p1
c__builtin__
object
p2
Ntp3
Rp4
(dp5
S'functions'
p6
(dp7
L3456L
(S'_get_mip'
p8
(lp9
(L2036026130L
L1650168448L
(lp10
(lp11
tp12
atp13
sL6504L
(S'_lgconv'
p14
(lp15
(L2557310622L
L0L
(lp16
(lp17
tp18
a(L2547447695L
L3438772250L
(lp19
(lp20
S'_zero'
p21
atp22
a(L3059263320L
L0L
(lp23
(lp24
tp25
a(L711797443L
L3991344601L
(lp26
L2147483648L
a(lp27
tp28
a(L1308064979L
L3438772250L
(lp29
(lp30
S'_ulgconv'
p31
atp32
atp33
sL8648L
(S'_memkill'
p34
(lp35
(L1177427108L
L0L
(lp36
(lp37
tp38
a(L1787461445L
L434665910L
(lp39
(lp40
S'_mr_free'
p41
atp42
a(L425776429L
L0L
(lp43
(lp44
tp45
atp46
sL13080L
(S'_ecp_memalloc'
p47
(lp48
(L2575400162L
L1650168448L
(lp49
(lp50
tp51
a(L3914318978L
L3438772250L
(lp52
(lp53
S'_mr_alloc'
p54
atp55
a(L3309676811L
L3438772250L
(lp56
(lp57
S'_mr_alloc'
p58
atp59
atp60
sL7048L
(S'_set_io_buffer_size'
p61
(lp62
(L3890712977L
L0L
(lp63
(lp64
tp65
a(L3868219565L
L2614424152L
(lp66
(lp67
tp68
a(L3574876764L
L1650168448L
(lp69
(lp70
tp71
a(L520110351L
L1912178190L
(lp72
(lp73
S'_mr_track'
p74
atp75
a(L3202574846L
L0L
(lp76
(lp77
tp78
a(L413120561L
L1650168448L
(lp79
(lp80
tp81
a(L2407831637L
L3438772250L
(lp82
(lp83
S'_mr_free'
p84
atp85
a(L1717927046L
L3292274482L
(lp86
(lp87
S'_mr_alloc'
p88
atp89
a(L3110991158L
L1650168448L
(lp90
(lp91
tp92
a(L1356022597L
L0L
(lp93
(lp94
tp95
atp96
sL10856L
(S'_numer'
p97
(lp98
(L1160525332L
L1650168448L
(lp99
(lp100
tp101
a(L1326837286L
L3438772250L
(lp102
(lp103
S'_mr_notint'
p104
atp105
a(L780793417L
L3380707132L
(lp106
L2147483647L
aL2147483648L
aL65535L
a(lp107
tp108
a(L4265512799L
L3991344601L
(lp109
L2147483648L
a(lp110
tp111
a(L1759313977L
L2467548407L
(lp112
L4294967295L
a(lp113
S'_convert'
p114
atp115
a(L2305891091L
L3438772250L
(lp116
(lp117
S'_convert'
p118
atp119
a(L3197138019L
L0L
(lp120
(lp121
tp122
a(L797539866L
L0L
(lp123
(lp124
tp125
a(L1229489231L
L0L
(lp126
(lp127
tp128
a(L3376042257L
L3438772250L
(lp129
(lp130
S'_mr_lent'
p131
atp132
a(L4135268519L
L3438772250L
(lp133
(lp134
S'_mr_lent'
p135
atp136
a(L3201183863L
L0L
(lp137
(lp138
tp139
a(L4282458474L
L0L
(lp140
(lp141
tp142
a(L2462003391L
L0L
(lp143
(lp144
tp145
a(L3513104212L
L0L
(lp146
(lp147
tp148
a(L3201183863L
L0L
(lp149
(lp150
tp151
a(L3169474982L
L3438772250L
(lp152
(lp153
S'_copy'
p154
atp155
a(L3066982217L
L0L
(lp156
(lp157
tp158
atp159
sL9880L
(S'_mr_shift'
p160
(lp161
(L838576699L
L1650168448L
(lp162
(lp163
tp164
a(L720748376L
L3438772250L
(lp165
(lp166
S'_copy'
p167
atp168
a(L725320632L
L0L
(lp169
(lp170
tp171
a(L3613736904L
L2614424152L
(lp172
(lp173
tp174
a(L4133177987L
L1650168448L
(lp175
(lp176
tp177
a(L1868153140L
L3438772250L
(lp178
(lp179
S'_mr_track'
p180
atp181
a(L57059634L
L3438772250L
(lp182
(lp183
S'_mr_notint'
p184
atp185
a(L896650328L
L3438772250L
(lp186
(lp187
S'_mr_berror'
p188
atp189
a(L1543032238L
L1654849075L
(lp190
L2147483647L
aL2147483648L
a(lp191
tp192
a(L3960896641L
L1912178190L
(lp193
(lp194
S'_zero'
p195
atp196
a(L4104425400L
L1650168448L
(lp197
(lp198
tp199
a(L985459366L
L0L
(lp200
(lp201
tp202
a(L744061561L
L1912178190L
(lp203
(lp204
S'_mr_berror'
p205
atp206
a(L2489587573L
L0L
(lp207
(lp208
tp209
a(L1504103424L
L0L
(lp210
(lp211
tp212
a(L3631176330L
L0L
(lp213
(lp214
tp215
a(L2783202946L
L0L
(lp216
(lp217
tp218
a(L2801886661L
L0L
(lp219
(lp220
tp221
a(L1018829052L
L0L
(lp222
(lp223
tp224
a(L1504103424L
L0L
(lp225
(lp226
tp227
a(L3249209674L
L0L
(lp228
(lp229
tp230
a(L2284063511L
L0L
(lp231
(lp232
tp233
a(L86625599L
L0L
(lp234
(lp235
tp236
a(L753848953L
L0L
(lp237
(lp238
tp239
a(L1018829052L
L0L
(lp240
(lp241
tp242
a(L1504103424L
L0L
(lp243
(lp244
tp245
a(L3281127537L
L0L
(lp246
(lp247
tp248
a(L3328288448L
L0L
(lp249
(lp250
tp251
a(L1710713059L
L1650168448L
(lp252
(lp253
tp254
a(L2140119133L
L0L
(lp255
(lp256
tp257
a(L1743730284L
L0L
(lp258
(lp259
tp260
atp261
sL8904L
(S'_exsign'
p262
(lp263
(L2554725261L
L3991344601L
(lp264
L2147483648L
a(lp265
tp266
atp267
sL13032L
(S'_epoint_init_mem'
p268
(lp269
(L489289533L
L1650168448L
(lp270
(lp271
tp272
a(L1310365671L
L0L
(lp273
(lp274
tp275
a(L1104330875L
L3438772250L
(lp276
(lp277
S'_epoint_init_mem_variable'
p278
atp279
atp280
sL3472L
(S'_set_mip'
p281
(lp282
(L2964722661L
L1650168448L
(lp283
(lp284
tp285
atp286
sL6872L
(S'_mirvar_mem'
p287
(lp288
(L489289533L
L1650168448L
(lp289
(lp290
tp291
a(L1310365671L
L0L
(lp292
(lp293
tp294
a(L1104330875L
L3438772250L
(lp295
(lp296
S'_mirvar_mem_variable'
p297
atp298
atp299
sL13192L
(S'_ecp_memkill'
p300
(lp301
(L1177427108L
L0L
(lp302
(lp303
tp304
a(L4139476271L
L1650168448L
(lp305
(lp306
tp307
a(L71461L
L0L
(lp308
(lp309
tp310
a(L1783452113L
L0L
(lp311
(lp312
tp313
a(L1041250330L
L3438772250L
(lp314
(lp315
S'_mr_free'
p316
atp317
a(L425776429L
L0L
(lp318
(lp319
tp320
atp321
sL11368L
(S'_lgcd'
p322
(lp323
(L3352058560L
L0L
(lp324
(lp325
tp326
a(L4285649770L
L0L
(lp327
(lp328
tp329
a(L140415962L
L0L
(lp330
(lp331
tp332
a(L1247471680L
L0L
(lp333
(lp334
tp335
a(L1356022597L
L0L
(lp336
(lp337
tp338
atp339
sL9224L
(S'_putdig'
p340
(lp341
(L2204455627L
L1650168448L
(lp342
(lp343
tp344
a(L3738563475L
L1650168448L
(lp345
(lp346
tp347
a(L2867789145L
L1650168448L
(lp348
(lp349
tp350
a(L1868153140L
L3438772250L
(lp351
(lp352
S'_mr_track'
p353
atp354
a(L440279934L
L4064682599L
(lp355
L2147483647L
aL2147483648L
a(lp356
S'_getdig'
p357
atp358
a(L1873726483L
L0L
(lp359
(lp360
tp361
a(L329377508L
L0L
(lp362
(lp363
tp364
a(L3813952318L
L0L
(lp365
(lp366
tp367
a(L364062021L
L0L
(lp368
(lp369
tp370
a(L653047162L
L0L
(lp371
(lp372
tp373
a(L2296839152L
L3438772250L
(lp374
(lp375
S'_mr_berror'
p376
atp377
a(L2238067405L
L0L
(lp378
(lp379
tp380
a(L111622080L
L0L
(lp381
(lp382
tp383
a(L2442829910L
L3438772250L
(lp384
(lp385
S'_mr_lzero'
p386
atp387
a(L2287064454L
L1650168448L
(lp388
(lp389
tp390
a(L2458884687L
L0L
(lp391
(lp392
tp393
atp394
sL8600L
(S'_memalloc'
p395
(lp396
(L1205389140L
L434665910L
(lp397
(lp398
S'_mr_alloc'
p399
atp400
atp401
sL10248L
(S'_size'
p402
(lp403
(L4019788579L
L0L
(lp404
(lp405
tp406
a(L1310365671L
L0L
(lp407
(lp408
tp409
a(L773170421L
L2807755291L
(lp410
L2147483648L
aL2147483647L
a(lp411
tp412
a(L1310365671L
L0L
(lp413
(lp414
tp415
a(L2772121965L
L0L
(lp416
(lp417
tp418
a(L2999202621L
L3667354999L
(lp419
L1073741824L
a(lp420
tp421
a(L875634551L
L3667354999L
(lp422
L1073741824L
a(lp423
tp424
a(L3964340368L
L3991344601L
(lp425
L2147483648L
a(lp426
tp427
a(L2881385518L
L0L
(lp428
(lp429
tp430
a(L425776429L
L0L
(lp431
(lp432
tp433
atp434
sL7336L
(S'_init_point_from_rom'
p435
(lp436
(L2897414748L
L3438772250L
(lp437
(lp438
S'_init_big_from_rom'
p439
atp440
a(L1743730284L
L0L
(lp441
(lp442
tp443
a(L2649970267L
L3438772250L
(lp444
(lp445
S'_init_big_from_rom'
p446
atp447
a(L1743730284L
L0L
(lp448
(lp449
tp450
a(L602809655L
L0L
(lp451
(lp452
tp453
atp454
sL3488L
(S'_mr_berror'
p455
(lp456
(L913017570L
L1650168448L
(lp457
(lp458
tp459
a(L2836430282L
L0L
(lp460
(lp461
tp462
a(L1319447167L
L1391042897L
(lp463
(lp464
S'_mputs'
p465
atp466
a(L55990818L
L1650168448L
(lp467
(lp468
tp469
a(L930321504L
L1650168448L
(lp470
(lp471
tp472
a(L2352737116L
L3551412508L
(lp473
(lp474
S'_mputs'
p475
aS'_fputc'
p476
atp477
a(L3137920702L
L0L
(lp478
(lp479
tp480
a(L596647173L
L4103188369L
(lp481
(lp482
S'_mputs'
p483
atp484
a(L162261084L
L2614424152L
(lp485
(lp486
tp487
a(L930321504L
L1650168448L
(lp488
(lp489
tp490
a(L2913778641L
L2941833480L
(lp491
(lp492
S'_mputs'
p493
aS'_fputc'
p494
atp495
a(L573706057L
L0L
(lp496
(lp497
tp498
a(L2889339756L
L0L
(lp499
(lp500
tp501
a(L2684345358L
L1650168448L
(lp502
(lp503
tp504
a(L4111977575L
L861601875L
(lp505
(lp506
tp507
a(L1761253695L
L1810325059L
(lp508
(lp509
tp510
a(L3626816880L
L613847734L
(lp511
(lp512
tp513
a(L1374929811L
L3563554511L
(lp514
(lp515
tp516
a(L3508368562L
L4061747872L
(lp517
(lp518
tp519
a(L4191313360L
L253829442L
(lp520
(lp521
tp522
a(L703729082L
L3898447448L
(lp523
(lp524
tp525
a(L4158842346L
L4117416020L
(lp526
(lp527
tp528
a(L1095390915L
L3444770927L
(lp529
(lp530
tp531
a(L2446420862L
L767744032L
(lp532
(lp533
tp534
a(L2374260352L
L2266353026L
(lp535
(lp536
tp537
a(L3383924753L
L2295999361L
(lp538
(lp539
tp540
a(L2539102717L
L3328099241L
(lp541
(lp542
tp543
a(L2574873542L
L3988654844L
(lp544
(lp545
tp546
a(L9531853L
L820437657L
(lp547
(lp548
tp549
a(L2764651963L
L3488396607L
(lp550
(lp551
tp552
a(L1914414259L
L2085529887L
(lp553
(lp554
tp555
a(L2703956922L
L550689940L
(lp556
(lp557
tp558
a(L3137520408L
L2165380266L
(lp559
(lp560
tp561
a(L1275451496L
L835852014L
(lp562
(lp563
tp564
a(L4095511182L
L3845782384L
(lp565
(lp566
tp567
a(L3891739714L
L249726900L
(lp568
(lp569
tp570
a(L2927925004L
L1510978030L
(lp571
(lp572
tp573
a(L1659760708L
L1780489242L
(lp574
(lp575
tp576
a(L3369355156L
L4084261522L
(lp577
(lp578
tp579
a(L4280179109L
L2985890625L
(lp580
(lp581
tp582
a(L1783988849L
L2623446189L
(lp583
(lp584
tp585
a(L757894368L
L1514113086L
(lp586
(lp587
tp588
a(L1095590088L
L3021521264L
(lp589
(lp590
tp591
a(L1387597723L
L1354249480L
(lp592
(lp593
S'_mputs'
p594
aS'_exit'
p595
atp596
atp597
sL12664L
(S'_epoint_init'
p598
(lp599
(L489289533L
L1650168448L
(lp600
(lp601
tp602
a(L1310365671L
L0L
(lp603
(lp604
tp605
a(L1140748212L
L1650168448L
(lp606
(lp607
tp608
a(L2743166677L
L1650168448L
(lp609
(lp610
tp611
a(L520110351L
L1912178190L
(lp612
(lp613
S'_mr_track'
p614
atp615
a(L3707288821L
L4220353904L
(lp616
(lp617
S'_mr_alloc'
p618
aS'_mirvar_mem'
p619
aS'_mirvar_mem'
p620
aS'_mirvar_mem'
p621
atp622
atp623
sL10312L
(S'_mr_compare'
p624
(lp625
(L2929936482L
L0L
(lp626
(lp627
tp628
a(L3793524623L
L2807755284L
(lp629
L2147483648L
aL2147483648L
a(lp630
tp631
a(L3753577984L
L1654849084L
(lp632
L2147483647L
aL2147483647L
a(lp633
tp634
a(L3255209645L
L0L
(lp635
(lp636
tp637
a(L1399421506L
L0L
(lp638
(lp639
tp640
a(L1400788076L
L0L
(lp641
(lp642
tp643
a(L12098703L
L0L
(lp644
(lp645
tp646
a(L3530515374L
L0L
(lp647
(lp648
tp649
a(L653184222L
L0L
(lp650
(lp651
tp652
a(L442205611L
L0L
(lp653
(lp654
tp655
a(L788058486L
L0L
(lp656
(lp657
tp658
a(L1743730284L
L0L
(lp659
(lp660
tp661
atp662
sL8760L
(S'_mirexit'
p663
(lp664
(L1449597565L
L3675486526L
(lp665
(lp666
S'_memkill'
p667
atp668
a(L1394600348L
L1650168448L
(lp669
(lp670
tp671
a(L2681560738L
L1912178190L
(lp672
(lp673
S'_set_io_buffer_size'
p674
atp675
a(L2926999285L
L3438772250L
(lp676
(lp677
S'_mr_free'
p678
atp679
a(L740910964L
L4079538650L
(lp680
(lp681
S'_mr_free'
p682
atp683
atp684
sL6568L
(S'_mirvar'
p685
(lp686
(L644269001L
L1650168448L
(lp687
(lp688
tp689
a(L133851771L
L0L
(lp690
(lp691
tp692
a(L1127135805L
L1650168448L
(lp693
(lp694
tp695
a(L735972919L
L1650168448L
(lp696
(lp697
tp698
a(L520110351L
L1912178190L
(lp699
(lp700
S'_mr_track'
p701
atp702
a(L788767552L
L0L
(lp703
(lp704
tp705
a(L3186086122L
L1912178190L
(lp706
(lp707
S'_mr_berror'
p708
atp709
a(L69159170L
L3438772250L
(lp710
(lp711
S'_mr_alloc'
p712
atp713
a(L1922031694L
L1650168448L
(lp714
(lp715
tp716
a(L2748949366L
L0L
(lp717
(lp718
tp719
a(L3840279295L
L3438772250L
(lp720
(lp721
S'_convert'
p722
atp723
a(L3254720068L
L1650168448L
(lp724
(lp725
tp726
atp727
sL11880L
(S'_mr_window'
p728
(lp729
(L3974697128L
L3438772250L
(lp730
(lp731
S'_mr_testbit'
p732
atp733
a(L1419451086L
L0L
(lp734
(lp735
tp736
a(L3724643917L
L0L
(lp737
(lp738
tp739
a(L562592647L
L0L
(lp740
(lp741
tp742
a(L1346181038L
L0L
(lp743
(lp744
tp745
a(L3764894821L
L3438772250L
(lp746
(lp747
S'_mr_testbit'
p748
atp749
a(L1871027471L
L0L
(lp750
(lp751
tp752
a(L3920113803L
L3990344595L
(lp753
L2147483651L
a(lp754
tp755
a(L4243637730L
L1504367728L
(lp756
L4294967292L
a(lp757
tp758
a(L653184198L
L0L
(lp759
(lp760
tp761
a(L3639660631L
L0L
(lp762
(lp763
tp764
a(L3249209674L
L0L
(lp765
(lp766
tp767
a(L1818707626L
L1504367734L
(lp768
L4294967294L
a(lp769
tp770
a(L2166226139L
L3991344600L
(lp771
L2147483649L
a(lp772
tp773
a(L3125598927L
L1504367734L
(lp774
L4294967294L
a(lp775
tp776
a(L352055415L
L0L
(lp777
(lp778
tp779
a(L4144692041L
L0L
(lp780
(lp781
tp782
a(L2925430438L
L0L
(lp783
(lp784
tp785
atp786
sL13432L
(S'_mr_free'
p787
(lp788
(L425776429L
L0L
(lp789
(lp790
tp791
atp792
sL12104L
(S'_mr_window2'
p793
(lp794
(L55233994L
L1354249480L
(lp795
(lp796
S'_mr_testbit'
p797
aS'_mr_testbit'
p798
atp799
a(L4280458251L
L0L
(lp800
(lp801
tp802
a(L3901575793L
L0L
(lp803
(lp804
tp805
a(L366831826L
L0L
(lp806
(lp807
tp808
a(L2655196713L
L0L
(lp809
(lp810
tp811
a(L615954924L
L0L
(lp812
(lp813
tp814
a(L786972824L
L0L
(lp815
(lp816
tp817
a(L3316633916L
L0L
(lp818
(lp819
tp820
a(L3596269173L
L0L
(lp821
(lp822
tp823
a(L1863189058L
L1354249480L
(lp824
(lp825
S'_mr_testbit'
p826
aS'_mr_testbit'
p827
atp828
a(L215713123L
L0L
(lp829
(lp830
tp831
a(L2949054802L
L0L
(lp832
(lp833
tp834
a(L2022570144L
L0L
(lp835
(lp836
tp837
a(L3705841476L
L0L
(lp838
(lp839
tp840
a(L131596892L
L0L
(lp841
(lp842
tp843
a(L3729342197L
L0L
(lp844
(lp845
tp846
a(L3628632441L
L0L
(lp847
(lp848
tp849
atp850
sL5896L
(S'_mr_lent'
p851
(lp852
(L2016207345L
L1012377279L
(lp853
L2147483647L
aL65535L
a(lp854
tp855
atp856
sL6792L
(S'_mirvar_mem_variable'
p857
(lp858
(L396754411L
L0L
(lp859
(lp860
tp861
a(L2249828080L
L0L
(lp862
(lp863
tp864
a(L3809345113L
L0L
(lp865
(lp866
tp867
atp868
sL9816L
(S'_absol'
p869
(lp870
(L113265389L
L4269683972L
(lp871
L2147483647L
a(lp872
S'_copy'
p873
atp874
atp875
sL9144L
(S'_numdig'
p876
(lp877
(L2822225725L
L0L
(lp878
(lp879
tp880
a(L1112844528L
L0L
(lp881
(lp882
tp883
a(L2747956689L
L3959892332L
(lp884
L2147483647L
a(lp885
S'_getdig'
p886
atp887
a(L3403676472L
L3438772250L
(lp888
(lp889
S'_getdig'
p890
atp891
a(L2539144736L
L0L
(lp892
(lp893
tp894
atp895
sL6152L
(S'_dlconv'
p896
(lp897
(L1139867582L
L3438772250L
(lp898
(lp899
S'_zero'
p900
atp901
a(L1528693310L
L0L
(lp902
(lp903
tp904
a(L653184208L
L0L
(lp905
(lp906
tp907
a(L47479315L
L0L
(lp908
(lp909
tp910
a(L3825935335L
L3991344601L
(lp911
L2147483648L
a(lp912
tp913
a(L1745533293L
L1650168448L
(lp914
(lp915
tp916
a(L3267773481L
L0L
(lp917
(lp918
tp919
a(L653184219L
L0L
(lp920
(lp921
tp922
a(L35479344L
L0L
(lp923
(lp924
tp925
a(L4161665348L
L1354249480L
(lp926
(lp927
S'__allrem'
p928
aS'__alldiv'
p929
atp930
a(L653184208L
L0L
(lp931
(lp932
tp933
a(L615954935L
L0L
(lp934
(lp935
tp936
a(L3347669704L
L0L
(lp937
(lp938
tp939
a(L3267773481L
L0L
(lp940
(lp941
tp942
a(L653184219L
L0L
(lp943
(lp944
tp945
a(L35479344L
L0L
(lp946
(lp947
tp948
a(L764075540L
L0L
(lp949
(lp950
tp951
a(L1515195574L
L2941833480L
(lp952
(lp953
S'__allrem'
p954
aS'__alldiv'
p955
atp956
a(L653184208L
L0L
(lp957
(lp958
tp959
a(L615954935L
L0L
(lp960
(lp961
tp962
a(L1010829012L
L0L
(lp963
(lp964
tp965
a(L3100667138L
L0L
(lp966
(lp967
tp968
a(L1419451086L
L0L
(lp969
(lp970
tp971
atp972
sL12328L
(S'_mr_naf_window'
p973
(lp974
(L1012622596L
L1354249480L
(lp975
(lp976
S'_mr_testbit'
p977
aS'_mr_testbit'
p978
atp979
a(L3221251116L
L0L
(lp980
(lp981
tp982
a(L2635043499L
L0L
(lp983
(lp984
tp985
a(L3714147711L
L0L
(lp986
(lp987
tp988
a(L2634050325L
L0L
(lp989
(lp990
tp991
a(L3260918598L
L1354249480L
(lp992
(lp993
S'_mr_testbit'
p994
aS'_mr_testbit'
p995
atp996
a(L1960010409L
L0L
(lp997
(lp998
tp999
a(L3255209645L
L0L
(lp1000
(lp1001
tp1002
a(L1569478227L
L0L
(lp1003
(lp1004
tp1005
a(L3783570069L
L0L
(lp1006
(lp1007
tp1008
a(L4115465871L
L0L
(lp1009
(lp1010
tp1011
a(L599986270L
L0L
(lp1012
(lp1013
tp1014
a(L1910114361L
L3991344600L
(lp1015
L2147483649L
a(lp1016
tp1017
a(L2079164816L
L1504367734L
(lp1018
L4294967294L
a(lp1019
tp1020
a(L653184198L
L0L
(lp1021
(lp1022
tp1023
a(L615954924L
L0L
(lp1024
(lp1025
tp1026
a(L217713138L
L0L
(lp1027
(lp1028
tp1029
a(L690208447L
L0L
(lp1030
(lp1031
tp1032
a(L3255209645L
L0L
(lp1033
(lp1034
tp1035
a(L2762829823L
L0L
(lp1036
(lp1037
tp1038
a(L27406919L
L0L
(lp1039
(lp1040
tp1041
a(L2471467403L
L3991344600L
(lp1042
L2147483649L
a(lp1043
tp1044
a(L4152316397L
L1504367734L
(lp1045
L4294967294L
a(lp1046
tp1047
a(L3246209545L
L0L
(lp1048
(lp1049
tp1050
a(L1578450886L
L3991344600L
(lp1051
L2147483649L
a(lp1052
tp1053
a(L3125598927L
L1504367734L
(lp1054
L4294967294L
a(lp1055
tp1056
a(L653184198L
L0L
(lp1057
(lp1058
tp1059
a(L2416860208L
L0L
(lp1060
(lp1061
tp1062
atp1063
sL5176L
(S'_brand'
p1064
(lp1065
(L4187829147L
L1650168448L
(lp1066
(lp1067
tp1068
a(L1265824574L
L1650168448L
(lp1069
(lp1070
tp1071
a(L1671531814L
L1912178190L
(lp1072
(lp1073
S'_mr_shiftbits'
p1074
atp1075
a(L2492202521L
L1650168448L
(lp1076
(lp1077
tp1078
a(L1596196390L
L0L
(lp1079
(lp1080
tp1081
a(L3388713796L
L0L
(lp1082
(lp1083
tp1084
a(L3362944205L
L0L
(lp1085
(lp1086
tp1087
a(L2707313246L
L0L
(lp1088
(lp1089
tp1090
a(L1868595902L
L1650168448L
(lp1091
(lp1092
tp1093
a(L1005982532L
L1650168448L
(lp1094
(lp1095
tp1096
a(L3258209778L
L0L
(lp1097
(lp1098
tp1099
a(L4121339217L
L1650168448L
(lp1100
(lp1101
tp1102
a(L2144293267L
L0L
(lp1103
(lp1104
tp1105
a(L537572183L
L1650168448L
(lp1106
(lp1107
tp1108
a(L1189033462L
L2174296029L
(lp1109
L4294967264L
a(lp1110
S'_mr_shiftbits'
p1111
atp1112
a(L737475946L
L0L
(lp1113
(lp1114
tp1115
atp1116
sL13428L
(S'_mr_alloc'
p1117
(lp1118
(L425776429L
L0L
(lp1119
(lp1120
tp1121
atp1122
sL11416L
(S'_isqrt'
p1123
(lp1124
(L927388667L
L0L
(lp1125
(lp1126
tp1127
a(L3441517590L
L0L
(lp1128
(lp1129
tp1130
a(L1089910952L
L0L
(lp1131
(lp1132
tp1133
a(L2612682046L
L0L
(lp1134
(lp1135
tp1136
a(L2707987290L
L0L
(lp1137
(lp1138
tp1139
a(L2209552524L
L0L
(lp1140
(lp1141
tp1142
a(L2053449204L
L0L
(lp1143
(lp1144
tp1145
a(L646328963L
L0L
(lp1146
(lp1147
tp1148
a(L1553478258L
L0L
(lp1149
(lp1150
tp1151
a(L3934414149L
L0L
(lp1152
(lp1153
tp1154
atp1155
sL10440L
(S'_fpack'
p1156
(lp1157
(L4221237127L
L1650168448L
(lp1158
(lp1159
tp1160
a(L3738563475L
L1650168448L
(lp1161
(lp1162
tp1163
a(L2708880328L
L1650168448L
(lp1164
(lp1165
tp1166
a(L1868153140L
L3438772250L
(lp1167
(lp1168
S'_mr_track'
p1169
atp1170
a(L2112718852L
L3991344598L
(lp1171
L2147483647L
a(lp1172
tp1173
a(L2840028075L
L3438772250L
(lp1174
(lp1175
S'_mr_berror'
p1176
atp1177
a(L4283476518L
L0L
(lp1178
(lp1179
tp1180
a(L341411155L
L0L
(lp1181
(lp1182
tp1183
a(L1769152852L
L0L
(lp1184
(lp1185
tp1186
a(L2517269900L
L0L
(lp1187
(lp1188
tp1189
a(L883222028L
L3438772250L
(lp1190
(lp1191
S'_mr_berror'
p1192
atp1193
a(L2604430365L
L3438772250L
(lp1194
(lp1195
S'_mr_notint'
p1196
atp1197
a(L3844503683L
L3438772250L
(lp1198
(lp1199
S'_mr_notint'
p1200
atp1201
a(L896650328L
L3438772250L
(lp1202
(lp1203
S'_mr_berror'
p1204
atp1205
a(L3501524645L
L1654849075L
(lp1206
L2147483647L
aL2147483648L
a(lp1207
tp1208
a(L3013724428L
L0L
(lp1209
(lp1210
tp1211
a(L2404342940L
L0L
(lp1212
(lp1213
tp1214
a(L3177273437L
L1650168448L
(lp1215
(lp1216
tp1217
a(L1114052160L
L0L
(lp1218
(lp1219
tp1220
a(L3182443229L
L0L
(lp1221
(lp1222
tp1223
a(L1059555426L
L1912178190L
(lp1224
(lp1225
S'_mr_berror'
p1226
atp1227
a(L2744473191L
L0L
(lp1228
(lp1229
tp1230
a(L3638054616L
L0L
(lp1231
(lp1232
tp1233
a(L4167491045L
L3438772250L
(lp1234
(lp1235
S'_copy'
p1236
atp1237
a(L651829343L
L3991344601L
(lp1238
L2147483648L
a(lp1239
tp1240
a(L1918330058L
L0L
(lp1241
(lp1242
tp1243
a(L2577624711L
L1650168448L
(lp1244
(lp1245
tp1246
a(L797539866L
L0L
(lp1247
(lp1248
tp1249
a(L1693188177L
L0L
(lp1250
(lp1251
tp1252
a(L2742157316L
L0L
(lp1253
(lp1254
tp1255
a(L3512620877L
L0L
(lp1256
(lp1257
tp1258
a(L3110991158L
L1650168448L
(lp1259
(lp1260
tp1261
a(L1743730284L
L0L
(lp1262
(lp1263
tp1264
atp1265
sL7240L
(S'_init_big_from_rom'
p1266
(lp1267
(L3799442192L
L3438772250L
(lp1268
(lp1269
S'_zero'
p1270
atp1271
a(L3428308919L
L0L
(lp1272
(lp1273
tp1274
a(L3064857407L
L0L
(lp1275
(lp1276
tp1277
a(L1318070654L
L0L
(lp1278
(lp1279
tp1280
a(L2615869250L
L3438772250L
(lp1281
(lp1282
S'_mr_lzero'
p1283
atp1284
a(L3221251116L
L0L
(lp1285
(lp1286
tp1287
atp1288
sL13408L
(S'_exit'
p1289
(lp1290
(L425776429L
L0L
(lp1291
(lp1292
tp1293
atp1294
sL11800L
(S'_recode'
p1295
(lp1296
(L2438593909L
L0L
(lp1297
(lp1298
tp1299
a(L3967913563L
L0L
(lp1300
(lp1301
tp1302
a(L2559329362L
L3438772250L
(lp1303
(lp1304
S'_mr_testbit'
p1305
atp1306
a(L1743730284L
L0L
(lp1307
(lp1308
tp1309
a(L979366901L
L0L
(lp1310
(lp1311
tp1312
atp1313
sL6088L
(S'_convert'
p1314
(lp1315
(L2557310622L
L0L
(lp1316
(lp1317
tp1318
a(L2547447695L
L3438772250L
(lp1319
(lp1320
S'_zero'
p1321
atp1322
a(L3059263320L
L0L
(lp1323
(lp1324
tp1325
a(L711797443L
L3991344601L
(lp1326
L2147483648L
a(lp1327
tp1328
a(L1308064979L
L3438772250L
(lp1329
(lp1330
S'_uconvert'
p1331
atp1332
atp1333
sL9848L
(S'_mr_notint'
p1334
(lp1335
(L70261552L
L3574638163L
(lp1336
L2147418112L
a(lp1337
tp1338
atp1339
sL5816L
(S'_fit'
p1340
(lp1341
(L3261659232L
L1654849084L
(lp1342
L2147483647L
aL2147483647L
a(lp1343
tp1344
a(L1105672648L
L0L
(lp1345
(lp1346
tp1347
a(L788058486L
L0L
(lp1348
(lp1349
tp1350
a(L1303820903L
L0L
(lp1351
(lp1352
tp1353
a(L4068174107L
L0L
(lp1354
(lp1355
tp1356
a(L3969504514L
L0L
(lp1357
(lp1358
tp1359
a(L1286494839L
L0L
(lp1360
(lp1361
tp1362
atp1363
sL11608L
(S'_sgcd'
p1364
(lp1365
(L3352058560L
L0L
(lp1366
(lp1367
tp1368
a(L4285649770L
L0L
(lp1369
(lp1370
tp1371
a(L140415962L
L0L
(lp1372
(lp1373
tp1374
a(L1247471680L
L0L
(lp1375
(lp1376
tp1377
a(L1356022597L
L0L
(lp1378
(lp1379
tp1380
atp1381
sL8936L
(S'_insign'
p1382
(lp1383
(L3046726046L
L0L
(lp1384
(lp1385
tp1386
a(L4010788503L
L0L
(lp1387
(lp1388
tp1389
a(L3515566401L
L3991344601L
(lp1390
L2147483648L
a(lp1391
tp1392
a(L2186202520L
L3991344598L
(lp1393
L2147483647L
a(lp1394
tp1395
a(L425776429L
L0L
(lp1396
(lp1397
tp1398
atp1399
sL6920L
(S'_set_user_function'
p1400
(lp1401
(L3985540784L
L1650168448L
(lp1402
(lp1403
tp1404
a(L2622929612L
L1650168448L
(lp1405
(lp1406
tp1407
a(L907528415L
L1650168448L
(lp1408
(lp1409
tp1410
a(L520110351L
L1912178190L
(lp1411
(lp1412
S'_mr_track'
p1413
atp1414
a(L788767552L
L0L
(lp1415
(lp1416
tp1417
a(L848488111L
L1912178190L
(lp1418
(lp1419
S'_mr_berror'
p1420
atp1421
a(L1127742200L
L1650168448L
(lp1422
(lp1423
tp1424
a(L425776429L
L0L
(lp1425
(lp1426
tp1427
atp1428
sL12856L
(S'_epoint_init_mem_variable'
p1429
(lp1430
(L2677690583L
L0L
(lp1431
(lp1432
tp1433
a(L403170122L
L0L
(lp1434
(lp1435
tp1436
a(L4117328635L
L1650168448L
(lp1437
(lp1438
tp1439
a(L1915148413L
L0L
(lp1440
(lp1441
tp1442
a(L1468808737L
L0L
(lp1443
(lp1444
tp1445
a(L2606463618L
L3504974572L
(lp1446
(lp1447
S'_mirvar_mem_variable'
p1448
aS'_mirvar_mem_variable'
p1449
atp1450
a(L986212165L
L3438772250L
(lp1451
(lp1452
S'_mirvar_mem_variable'
p1453
atp1454
a(L427149608L
L0L
(lp1455
(lp1456
tp1457
atp1458
sL6392L
(S'_ulgconv'
p1459
(lp1460
(L3162307833L
L3438772250L
(lp1461
(lp1462
S'_zero'
p1463
atp1464
a(L19020935L
L1650168448L
(lp1465
(lp1466
tp1467
a(L1560464140L
L0L
(lp1468
(lp1469
tp1470
a(L203712920L
L0L
(lp1471
(lp1472
tp1473
a(L945518967L
L1650168448L
(lp1474
(lp1475
tp1476
a(L60250665L
L0L
(lp1477
(lp1478
tp1479
a(L2237932591L
L0L
(lp1480
(lp1481
tp1482
atp1483
sL5976L
(S'_uconvert'
p1484
(lp1485
(L3162307833L
L3438772250L
(lp1486
(lp1487
S'_zero'
p1488
atp1489
a(L19020935L
L1650168448L
(lp1490
(lp1491
tp1492
a(L1560464140L
L0L
(lp1493
(lp1494
tp1495
a(L203712920L
L0L
(lp1496
(lp1497
tp1498
a(L945518967L
L1650168448L
(lp1499
(lp1500
tp1501
a(L60250665L
L0L
(lp1502
(lp1503
tp1504
a(L2237932591L
L0L
(lp1505
(lp1506
tp1507
atp1508
sL5592L
(S'_mr_shiftbits'
p1509
(lp1510
(L1493204376L
L0L
(lp1511
(lp1512
tp1513
a(L3248209552L
L0L
(lp1514
(lp1515
tp1516
a(L2783480399L
L0L
(lp1517
(lp1518
tp1519
a(L3686727908L
L0L
(lp1520
(lp1521
tp1522
a(L425776429L
L0L
(lp1523
(lp1524
tp1525
atp1526
sL13412L
(S'_fputc'
p1527
(lp1528
(L425776429L
L0L
(lp1529
(lp1530
tp1531
atp1532
sL7432L
(S'_mirsys'
p1533
(lp1534
(L1033358823L
L1190238782L
(lp1535
(lp1536
S'_mr_first_alloc'
p1537
aS'_get_mip'
p1538
aS'_mirsys_basic'
p1539
atp1540
atp1541
sL11112L
(S'_denom'
p1542
(lp1543
(L367382410L
L1650168448L
(lp1544
(lp1545
tp1546
a(L911995674L
L3438772250L
(lp1547
(lp1548
S'_mr_notint'
p1549
atp1550
a(L3543041834L
L3438772250L
(lp1551
(lp1552
S'_convert'
p1553
atp1554
a(L858871629L
L1012377279L
(lp1555
L2147483647L
aL65535L
a(lp1556
tp1557
a(L2994913915L
L0L
(lp1558
(lp1559
tp1560
a(L1526985194L
L0L
(lp1561
(lp1562
tp1563
a(L575706074L
L0L
(lp1564
(lp1565
tp1566
a(L1619743090L
L0L
(lp1567
(lp1568
tp1569
a(L1400788076L
L0L
(lp1570
(lp1571
tp1572
a(L574501598L
L0L
(lp1573
(lp1574
tp1575
a(L2319098060L
L0L
(lp1576
(lp1577
tp1578
a(L3971958048L
L0L
(lp1579
(lp1580
tp1581
a(L3504220494L
L3438772250L
(lp1582
(lp1583
S'_mr_lent'
p1584
atp1585
a(L72415963L
L3438772250L
(lp1586
(lp1587
S'_mr_lent'
p1588
atp1589
a(L3562846387L
L0L
(lp1590
(lp1591
tp1592
a(L2237932591L
L0L
(lp1593
(lp1594
tp1595
atp1596
sL11656L
(S'_mr_testbit'
p1597
(lp1598
(L4263095515L
L1650168448L
(lp1599
(lp1600
tp1601
atp1602
sL9640L
(S'_copy'
p1603
(lp1604
(L339303340L
L0L
(lp1605
(lp1606
tp1607
a(L615954924L
L0L
(lp1608
(lp1609
tp1610
a(L1506103449L
L0L
(lp1611
(lp1612
tp1613
a(L1122609359L
L3438772250L
(lp1614
(lp1615
S'_zero'
p1616
atp1617
a(L1191344258L
L1354249480L
(lp1618
(lp1619
S'_mr_lent'
p1620
aS'_mr_lent'
p1621
atp1622
a(L1206991593L
L0L
(lp1623
(lp1624
tp1625
a(L1400788076L
L0L
(lp1626
(lp1627
tp1628
a(L3743022686L
L0L
(lp1629
(lp1630
tp1631
a(L27295479L
L0L
(lp1632
(lp1633
tp1634
a(L1534089083L
L0L
(lp1635
(lp1636
tp1637
a(L2222856904L
L0L
(lp1638
(lp1639
tp1640
atp1641
sL11720L
(S'_mr_addbit'
p1642
(lp1643
(L3443135252L
L434665910L
(lp1644
(lp1645
S'_mr_shiftbits'
p1646
atp1647
a(L1636814622L
L0L
(lp1648
(lp1649
tp1650
a(L1743730284L
L0L
(lp1651
(lp1652
tp1653
atp1654
sL8728L
(S'_mirkill'
p1655
(lp1656
(L3890712967L
L0L
(lp1657
(lp1658
tp1659
a(L2954522166L
L1354249480L
(lp1660
(lp1661
S'_zero'
p1662
aS'_mr_free'
p1663
atp1664
a(L1356022597L
L0L
(lp1665
(lp1666
tp1667
atp1668
sL9768L
(S'_negify'
p1669
(lp1670
(L2127392721L
L3438772250L
(lp1671
(lp1672
S'_copy'
p1673
atp1674
a(L3175467778L
L3991344601L
(lp1675
L2147483648L
a(lp1676
tp1677
a(L1356022597L
L0L
(lp1678
(lp1679
tp1680
atp1681
sL5480L
(S'_irand'
p1682
(lp1683
(L3426907694L
L432033468L
(lp1684
(lp1685
tp1686
a(L1736564234L
L1650168448L
(lp1687
(lp1688
tp1689
a(L1265857721L
L0L
(lp1690
(lp1691
tp1692
a(L3075634580L
L3438772250L
(lp1693
(lp1694
S'_brand'
p1695
atp1696
a(L1994012262L
L0L
(lp1697
(lp1698
tp1699
atp1700
sL13420L
(S'__alldiv'
p1701
(lp1702
(L425776429L
L0L
(lp1703
(lp1704
tp1705
atp1706
sL12632L
(S'_point_at_infinity'
p1707
(lp1708
(L2557310622L
L0L
(lp1709
(lp1710
tp1711
a(L425776429L
L0L
(lp1712
(lp1713
tp1714
a(L3828680181L
L0L
(lp1715
(lp1716
tp1717
atp1718
sL8984L
(S'_mr_lzero'
p1719
(lp1720
(L5015529L
L2807755291L
(lp1721
L2147483648L
aL2147483647L
a(lp1722
tp1723
a(L299377306L
L0L
(lp1724
(lp1725
tp1726
a(L3018587164L
L0L
(lp1727
(lp1728
tp1729
a(L2461601576L
L0L
(lp1730
(lp1731
tp1732
a(L2162578650L
L0L
(lp1733
(lp1734
tp1735
a(L2985502908L
L0L
(lp1736
(lp1737
tp1738
a(L1356022597L
L0L
(lp1739
(lp1740
tp1741
atp1742
sL5928L
(S'_zero'
p1743
(lp1744
(L3890712967L
L0L
(lp1745
(lp1746
tp1747
a(L831753124L
L3438772250L
(lp1748
(lp1749
S'_mr_lent'
p1750
atp1751
a(L2154920487L
L0L
(lp1752
(lp1753
tp1754
a(L318086449L
L0L
(lp1755
(lp1756
tp1757
a(L1356022597L
L0L
(lp1758
(lp1759
tp1760
atp1761
sL9048L
(S'_getdig'
p1762
(lp1763
(L3923776669L
L1650168448L
(lp1764
(lp1765
tp1766
a(L1818159182L
L0L
(lp1767
(lp1768
tp1769
a(L3887581060L
L0L
(lp1770
(lp1771
tp1772
a(L4236542511L
L0L
(lp1773
(lp1774
tp1775
a(L1871562412L
L0L
(lp1776
(lp1777
tp1778
a(L1506115811L
L0L
(lp1779
(lp1780
tp1781
atp1782
sL5032L
(S'_mputs'
p1783
(lp1784
(L94465611L
L0L
(lp1785
(lp1786
tp1787
a(L1542886291L
L434665910L
(lp1788
(lp1789
S'_fputc'
p1790
atp1791
a(L1356022597L
L0L
(lp1792
(lp1793
tp1794
atp1795
sL5080L
(S'_mr_track'
p1796
(lp1797
(L3684522967L
L1650168448L
(lp1798
(lp1799
tp1800
a(L1245879518L
L4079538650L
(lp1801
(lp1802
S'_fputc'
p1803
atp1804
a(L3453751609L
L308682622L
(lp1805
(lp1806
S'_fputc'
p1807
aS'_mputs'
p1808
aS'_fputc'
p1809
atp1810
atp1811
sL13336L
(S'_epoint_free'
p1812
(lp1813
(L3890712967L
L0L
(lp1814
(lp1815
tp1816
a(L3784571523L
L1354249480L
(lp1817
(lp1818
S'_zero'
p1819
aS'_zero'
p1820
atp1821
a(L3236389827L
L3438772250L
(lp1822
(lp1823
S'_zero'
p1824
atp1825
a(L3826236372L
L3438772250L
(lp1826
(lp1827
S'_mr_free'
p1828
atp1829
a(L1356022597L
L0L
(lp1830
(lp1831
tp1832
atp1833
sL11320L
(S'_igcd'
p1834
(lp1835
(L3352058560L
L0L
(lp1836
(lp1837
tp1838
a(L4285649770L
L0L
(lp1839
(lp1840
tp1841
a(L140415962L
L0L
(lp1842
(lp1843
tp1844
a(L1247471680L
L0L
(lp1845
(lp1846
tp1847
a(L1356022597L
L0L
(lp1848
(lp1849
tp1850
atp1851
sL5624L
(S'_mr_setbase'
p1852
(lp1853
(L4011671402L
L0L
(lp1854
(lp1855
tp1856
a(L3427467725L
L0L
(lp1857
(lp1858
tp1859
a(L653184222L
L0L
(lp1860
(lp1861
tp1862
a(L1247922638L
L3991344600L
(lp1863
L2147483649L
a(lp1864
tp1865
a(L4152316397L
L1504367734L
(lp1866
L4294967294L
a(lp1867
tp1868
a(L3246209545L
L0L
(lp1869
(lp1870
tp1871
a(L4108885405L
L0L
(lp1872
(lp1873
tp1874
a(L3124969213L
L1058105080L
(lp1875
(lp1876
tp1877
a(L1679634667L
L3991344601L
(lp1878
L2147483648L
a(lp1879
tp1880
a(L3249209674L
L0L
(lp1881
(lp1882
tp1883
a(L717518420L
L432033468L
(lp1884
(lp1885
tp1886
a(L1795816891L
L1650168448L
(lp1887
(lp1888
tp1889
a(L2512252755L
L1650168448L
(lp1890
(lp1891
tp1892
a(L133851771L
L0L
(lp1893
(lp1894
tp1895
atp1896
sL13424L
(S'__allrem'
p1897
(lp1898
(L425776429L
L0L
(lp1899
(lp1900
tp1901
atp1902
sL13436L
(S'_mr_first_alloc'
p1903
(lp1904
(L425776429L
L0L
(lp1905
(lp1906
tp1907
atp1908
sL11512L
(S'_lsqrt'
p1909
(lp1910
(L927388667L
L0L
(lp1911
(lp1912
tp1913
a(L3441517590L
L0L
(lp1914
(lp1915
tp1916
a(L1089910952L
L0L
(lp1917
(lp1918
tp1919
a(L2612682046L
L0L
(lp1920
(lp1921
tp1922
a(L2707987290L
L0L
(lp1923
(lp1924
tp1925
a(L2209552524L
L0L
(lp1926
(lp1927
tp1928
a(L2053449204L
L0L
(lp1929
(lp1930
tp1931
a(L646328963L
L0L
(lp1932
(lp1933
tp1934
a(L1553478258L
L0L
(lp1935
(lp1936
tp1937
a(L3934414149L
L0L
(lp1938
(lp1939
tp1940
atp1941
sL9496L
(S'_mr_and'
p1942
(lp1943
(L4079382363L
L0L
(lp1944
(lp1945
tp1946
a(L3524212574L
L3438772250L
(lp1947
(lp1948
S'_copy'
p1949
atp1950
a(L3429794796L
L449713974L
(lp1951
(lp1952
S'_mr_lent'
p1953
aS'_mr_lent'
p1954
aS'_mr_lent'
p1955
atp1956
a(L3007601387L
L0L
(lp1957
(lp1958
tp1959
a(L1469655942L
L0L
(lp1960
(lp1961
tp1962
a(L1142559485L
L0L
(lp1963
(lp1964
tp1965
a(L1535521499L
L0L
(lp1966
(lp1967
tp1968
a(L1967958535L
L0L
(lp1969
(lp1970
tp1971
a(L2831856335L
L0L
(lp1972
(lp1973
tp1974
a(L3611624231L
L0L
(lp1975
(lp1976
tp1977
atp1978
sL7480L
(S'_mirsys_basic'
p1979
(lp1980
(L3935636608L
L0L
(lp1981
(lp1982
tp1983
a(L3441517590L
L0L
(lp1984
(lp1985
tp1986
a(L3886702693L
L0L
(lp1987
(lp1988
tp1989
a(L4155408364L
L3991344601L
(lp1990
L2147483648L
a(lp1991
tp1992
a(L2806852325L
L3438772250L
(lp1993
(lp1994
S'_mr_setbase'
p1995
atp1996
a(L1640109889L
L0L
(lp1997
(lp1998
tp1999
a(L812951211L
L0L
(lp2000
(lp2001
tp2002
a(L1154087271L
L0L
(lp2003
(lp2004
tp2005
a(L3165012999L
L0L
(lp2006
(lp2007
tp2008
a(L1792348538L
L0L
(lp2009
(lp2010
tp2011
a(L3377117852L
L0L
(lp2012
(lp2013
tp2014
a(L3025599054L
L0L
(lp2015
(lp2016
tp2017
a(L148626551L
L0L
(lp2018
(lp2019
tp2020
a(L3824364417L
L0L
(lp2021
(lp2022
tp2023
a(L2480299029L
L0L
(lp2024
(lp2025
tp2026
a(L1444940102L
L0L
(lp2027
(lp2028
tp2029
a(L723397697L
L0L
(lp2030
(lp2031
tp2032
a(L3320639414L
L0L
(lp2033
(lp2034
tp2035
a(L523763412L
L3676684921L
(lp2036
L1431655765L
aL305419896L
a(lp2037
S'_mr_alloc'
p2038
atp2039
a(L241516422L
L0L
(lp2040
(lp2041
tp2042
a(L2645081449L
L3773056921L
(lp2043
L65535L
a(lp2044
tp2045
a(L4115785745L
L3438772250L
(lp2046
(lp2047
S'_mr_berror'
p2048
atp2049
a(L100399540L
L1900817520L
(lp2050
(lp2051
S'_memalloc'
p2052
aS'_mirvar_mem'
p2053
aS'_mirvar_mem'
p2054
aS'_mirvar_mem'
p2055
aS'_mirvar_mem'
p2056
aS'_mirvar_mem'
p2057
aS'_mirvar_mem'
p2058
aS'_mirvar_mem'
p2059
aS'_mirvar_mem'
p2060
aS'_mirvar_mem'
p2061
aS'_mirvar_mem'
p2062
aS'_mirvar_mem'
p2063
aS'_mirvar_mem'
p2064
aS'_mirvar_mem'
p2065
aS'_mirvar_mem'
p2066
aS'_mirvar_mem'
p2067
aS'_mirvar_mem'
p2068
aS'_mirvar_mem'
p2069
aS'_mirvar_mem'
p2070
aS'_mirvar_mem'
p2071
aS'_mirvar_mem'
p2072
aS'_mirvar_mem'
p2073
aS'_mirvar_mem'
p2074
aS'_mirvar_mem'
p2075
atp2076
a(L4188464211L
L3438772250L
(lp2077
(lp2078
S'_mr_berror'
p2079
atp2080
atp2081
ssS'fuzzydups'
p2082
c__builtin__
set
p2083
((lp2084
tp2085
Rp2086
sS'stringdups'
p2087
g2083
((lp2088
tp2089
Rp2090
sS'immediates'
p2091
(dp2092
L4294967264L
L5176L
sL2147483651L
L11880L
sL2147418112L
L9848L
sL4294967295L
L10856L
sL1431655765L
L7480L
sL305419896L
L7480L
sL4294967292L
L11880L
ssS'formaldups'
p2093
g2083
((lp2094
tp2095
Rp2096
sS'immediatedups'
p2097
g2083
((lp2098
tp2099
Rp2100
sS'fuzzy'
p2101
(dp2102
L3122863104L
L8760L
sL4180782080L
L8936L
sL249526021L
L5896L
sL4116941063L
L12856L
sL1089095562L
L6920L
sL3287167266L
L13192L
sL3437646146L
L9048L
sL4063334926L
L7480L
sL3513561106L
L5080L
sL648719758L
L11880L
sL2163367831L
L12104L
sL2481527294L
L6152L
sL3643998362L
L10440L
sL82156911L
L11800L
sL2761199009L
L13080L
sL214156066L
L9768L
sL1459257126L
L7240L
sL1913288362L
L8984L
sL272458667L
L7432L
sL99980589L
L5928L
sL3687849008L
L5624L
sL2310511410L
L9496L
sL3022800627L
L12664L
sL2863587893L
L12328L
sL3713633208L
L10248L
sL3757327801L
L8600L
sL1589238901L
L7336L
sL430505794L
L8904L
sL1577355466L
L6568L
sL1941946445L
L5816L
sL790825807L
L9144L
sL1292224212L
L5480L
sL4185184597L
L9880L
sL3003695810L
L13336L
sL426401627L
L11720L
sL422156775L
L3488L
sL3630669164L
L10856L
sL952789906L
L9640L
sL1910039406L
L9848L
sL1034901374L
L9224L
sL679538802L
L11112L
sL199145205L
L10312L
sL3358407158L
L9816L
sL2294797949L
L5176L
sL82660478L
L7048L
sL4043101566L
L8728L
ssS'strings'
p2103
(dp2104
L2295999361L
L3488L
sL2266353026L
L3488L
sL2985890625L
L3488L
sL4084261522L
L3488L
sL550689940L
L3488L
sL835852014L
L3488L
sL820437657L
L3488L
sL1780489242L
L3488L
sL2085529887L
L3488L
sL4061747872L
L3488L
sL3021521264L
L3488L
sL3328099241L
L3488L
sL2165380266L
L3488L
sL2623446189L
L3488L
sL249726900L
L3488L
sL613847734L
L3488L
sL1514113086L
L3488L
sL3488396607L
L3488L
sL767744032L
L3488L
sL253829442L
L3488L
sL1810325059L
L3488L
sL3563554511L
L3488L
sL861601875L
L3488L
sL4117416020L
L3488L
sL3898447448L
L3488L
sL4038642405L
L3488L
sL1510978030L
L3488L
sL3444770927L
L3488L
sL3845782384L
L3488L
sL2848776435L
L3488L
sL3988654844L
L3488L
ssS'formal'
p2105
(dp2106
L4248057323L
L8904L
sL3792664836L
L5624L
sL1994114823L
L8936L
sL2373091980L
L7480L
sL4048075117L
L12328L
sL1547250832L
L9144L
sL3957111683L
L9768L
sL2289576335L
L12632L
sL37988782L
L12104L
sL3641420056L
L10312L
sL1606189337L
L10856L
sL1320371984L
L10248L
sL3995142561L
L9496L
sL2122329637L
L8760L
sL1810139046L
L8648L
sL1448258091L
L3472L
sL1116359410L
L8984L
sL879475118L
L9880L
sL3267935283L
L6568L
sL1313751220L
L7240L
sL2052567070L
L11880L
sL110652600L
L11800L
sL192522804L
L7336L
sL612036028L
L11656L
sL4276560701L
L6792L
sL2568223422L
L5176L
sL2420983615L
L9048L
sL205143746L
L12856L
sL946293446L
L13336L
sL753425735L
L3488L
sL618808013L
L5080L
sL3212763471L
L10440L
sL1270306261L
L8600L
sL3123203800L
L5896L
sL697019353L
L13192L
sL2901778503L
L12664L
sL3431868507L
L5928L
sL2674807905L
L9816L
sL1924585956L
L5032L
sL1447786986L
L7432L
sL3569389035L
L5816L
sL2067138540L
L8728L
sL2583303789L
L6152L
sL14384752L
L7048L
sL2929191537L
L13080L
sL2926419570L
L5480L
sL3726447987L
L3456L
sL1370713332L
L6920L
sL3939444342L
L11720L
sL3532975609L
L9224L
sL523550843L
L5592L
sL2840476400L
L11112L
sL1403787134L
L9848L
sL3197028821L
L9640L
ssb.