ccopy_reg
_reconstructor
p0
(c__main__
RizzoSignatures
p1
c__builtin__
object
p2
Ntp3
Rp4
(dp5
S'functions'
p6
(dp7
L0L
(S'_dconv'
p8
(lp9
(L108603268L
L1650168448L
(lp10
(lp11
tp12
a(L3738563475L
L1650168448L
(lp13
(lp14
tp15
a(L4006943549L
L1650168448L
(lp16
(lp17
tp18
a(L1868153140L
L3438772250L
(lp19
(lp20
S'_mr_track'
p21
atp22
a(L2117444206L
L1912178190L
(lp23
(lp24
S'_zero'
p25
atp26
a(L1295368447L
L1650168448L
(lp27
(lp28
tp29
a(L3376404553L
L432033468L
(lp30
(lp31
tp32
a(L1210940316L
L1504367735L
(lp33
L4294967295L
a(lp34
tp35
a(L2307479712L
L0L
(lp36
(lp37
tp38
a(L1190456513L
L1650168448L
(lp39
(lp40
tp41
a(L3203706918L
L0L
(lp42
(lp43
tp44
a(L1808492801L
L1309723220L
(lp45
(lp46
S'_build'
p47
aS'_insign'
p48
atp49
a(L1356022597L
L0L
(lp50
(lp51
tp52
atp53
sL1408L
(S'_insign'
p54
(lp55
(L425776429L
L0L
(lp56
(lp57
tp58
atp59
sL1448L
(S'_mr_berror'
p60
(lp61
(L425776429L
L0L
(lp62
(lp63
tp64
atp65
sL1412L
(S'_build'
p66
(lp67
(L425776429L
L0L
(lp68
(lp69
tp70
atp71
sL864L
(S'_fdsize'
p72
(lp73
(L3932817960L
L1086001547L
(lp74
L4294967288L
a(lp75
tp76
a(L3062172967L
L3438772250L
(lp77
(lp78
S'_size'
p79
atp80
a(L617908893L
L2614424152L
(lp81
(lp82
tp83
a(L3518126727L
L1650168448L
(lp84
(lp85
tp86
a(L520110351L
L1912178190L
(lp87
(lp88
S'_mr_track'
p89
atp90
a(L2276637850L
L672529830L
(lp91
(lp92
S'__CIpow'
p93
atp94
a(L311547762L
L2640012870L
(lp95
(lp96
S'__CIpow'
p97
atp98
a(L1455884110L
L0L
(lp99
(lp100
tp101
a(L1054495162L
L1997743146L
(lp102
(lp103
S'_numer'
p104
aS'_exsign'
p105
aS'_insign'
p106
atp107
a(L2937906705L
L0L
(lp108
(lp109
tp110
a(L2438005768L
L0L
(lp111
(lp112
tp113
a(L667642223L
L0L
(lp114
(lp115
tp116
a(L1057589217L
L1912178190L
(lp117
(lp118
S'_denom'
p119
atp120
a(L1108042411L
L0L
(lp121
(lp122
tp123
a(L2493066425L
L0L
(lp124
(lp125
tp126
a(L1795816891L
L1650168448L
(lp127
(lp128
tp129
a(L4262521959L
L0L
(lp130
(lp131
tp132
a(L3113252649L
L0L
(lp133
(lp134
tp135
a(L3248209552L
L0L
(lp136
(lp137
tp138
a(L3133871014L
L0L
(lp139
(lp140
tp141
a(L1218932355L
L0L
(lp142
(lp143
tp144
a(L2364855629L
L0L
(lp145
(lp146
tp147
a(L3143455271L
L0L
(lp148
(lp149
tp150
a(L3220232568L
L0L
(lp151
(lp152
tp153
a(L3059461235L
L0L
(lp154
(lp155
tp156
a(L1021872918L
L0L
(lp157
(lp158
tp159
a(L820936453L
L0L
(lp160
(lp161
tp162
a(L4250613320L
L1912178190L
(lp163
(lp164
S'_mr_berror'
p165
atp166
a(L1909957547L
L1650168448L
(lp167
(lp168
tp169
atp170
sL1416L
(S'_zero'
p171
(lp172
(L425776429L
L0L
(lp173
(lp174
tp175
atp176
sL1452L
(S'_denom'
p177
(lp178
(L425776429L
L0L
(lp179
(lp180
tp181
atp182
sL1420L
(S'_mr_track'
p183
(lp184
(L425776429L
L0L
(lp185
(lp186
tp187
atp188
sL1456L
(S'_exsign'
p189
(lp190
(L425776429L
L0L
(lp191
(lp192
tp193
atp194
sL1432L
(S'_size'
p195
(lp196
(L425776429L
L0L
(lp197
(lp198
tp199
atp200
sL1440L
(S'__ftol'
p201
(lp202
(L425776429L
L0L
(lp203
(lp204
tp205
atp206
sL1460L
(S'_numer'
p207
(lp208
(L425776429L
L0L
(lp209
(lp210
tp211
atp212
sL248L
(S'_dquot'
p213
(lp214
(L1099568943L
L1505367737L
(lp215
L4294967288L
a(lp216
tp217
a(L57273361L
L2337688401L
(lp218
L4294967295L
a(lp219
tp220
a(L311547762L
L2640012870L
(lp221
(lp222
S'__CIpow'
p223
atp224
a(L2568571629L
L0L
(lp225
(lp226
tp227
a(L350926106L
L2614424152L
(lp228
(lp229
tp230
a(L2325797487L
L2614424152L
(lp231
(lp232
tp233
a(L182724087L
L1650168448L
(lp234
(lp235
tp236
a(L436844513L
L0L
(lp237
(lp238
tp239
a(L2084704564L
L2614424152L
(lp240
(lp241
tp242
a(L3245100006L
L1504367735L
(lp243
L4294967295L
a(lp244
tp245
a(L2615565816L
L3152541604L
(lp246
(lp247
S'_modf'
p248
aS'_zero'
p249
atp250
a(L440211268L
L0L
(lp251
(lp252
tp253
a(L3012273907L
L1405399740L
(lp254
(lp255
S'_modf'
p256
aS'__ftol'
p257
atp258
a(L2252777520L
L2614424152L
(lp259
(lp260
tp261
a(L2837827509L
L1650168448L
(lp262
(lp263
tp264
a(L2872908072L
L609169042L
(lp265
(lp266
S'_size'
p267
atp268
a(L328372734L
L0L
(lp269
(lp270
tp271
a(L2391110673L
L1504367734L
(lp272
L4294967294L
a(lp273
tp274
atp275
sL1444L
(S'__CIpow'
p276
(lp277
(L425776429L
L0L
(lp278
(lp279
tp280
atp281
sL1436L
(S'_modf'
p282
(lp283
(L425776429L
L0L
(lp284
(lp285
tp286
atp287
ssS'fuzzydups'
p288
c__builtin__
set
p289
((lp290
tp291
Rp292
sS'stringdups'
p293
g289
((lp294
tp295
Rp296
sS'immediates'
p297
(dp298
L4294967294L
L248L
ssS'formaldups'
p299
g289
((lp300
tp301
Rp302
sS'immediatedups'
p303
g289
((lp304
tp305
Rp306
sS'fuzzy'
p307
(dp308
L2115294200L
L0L
sL3074593174L
L248L
sL1331185871L
L864L
ssS'strings'
p309
(dp310
sS'formal'
p311
(dp312
L2070925881L
L864L
sL4251456419L
L0L
sL2943622263L
L248L
ssb.