ccopy_reg
_reconstructor
p0
(c__main__
RizzoSignatures
p1
c__builtin__
object
p2
Ntp3
Rp4
(dp5
S'functions'
p6
(dp7
L0L
(S'_ecurve2_init'
p8
(lp9
(L378685210L
L1650168448L
(lp10
(lp11
tp12
a(L3441517590L
L0L
(lp13
(lp14
tp15
a(L2261522643L
L1650168448L
(lp16
(lp17
tp18
a(L2241521535L
L434665910L
(lp19
(lp20
S'_size'
p21
atp22
a(L3441517590L
L0L
(lp23
(lp24
tp25
a(L1558988362L
L3438772250L
(lp26
(lp27
S'_size'
p28
atp29
a(L3441517590L
L0L
(lp30
(lp31
tp32
a(L4087515642L
L3438772250L
(lp33
(lp34
S'_size'
p35
atp36
a(L3441517590L
L0L
(lp37
(lp38
tp39
a(L1163651497L
L3438772250L
(lp40
(lp41
S'_size'
p42
atp43
a(L3441517590L
L0L
(lp44
(lp45
tp46
a(L2133487739L
L2614424152L
(lp47
(lp48
tp49
a(L3531391907L
L1650168448L
(lp50
(lp51
tp52
a(L1868153140L
L3438772250L
(lp53
(lp54
S'_mr_track'
p55
atp56
a(L1466150767L
L3438772250L
(lp57
(lp58
S'_prepare_basis'
p59
atp60
a(L1181925555L
L1650168448L
(lp61
(lp62
tp63
a(L3985050598L
L3152541604L
(lp64
(lp65
S'_size'
p66
aS'_size'
p67
atp68
a(L4229357470L
L0L
(lp69
(lp70
tp71
a(L1127869955L
L0L
(lp72
(lp73
tp74
a(L315318857L
L0L
(lp75
(lp76
tp77
a(L2721153295L
L1650168448L
(lp78
(lp79
tp80
a(L918428326L
L3667354999L
(lp81
L1073741824L
a(lp82
tp83
a(L1932938392L
L1912178190L
(lp84
(lp85
S'_copy'
p86
atp87
a(L2100696284L
L0L
(lp88
(lp89
tp90
a(L2366869931L
L1912178190L
(lp91
(lp92
S'_copy'
p93
atp94
a(L3727751298L
L0L
(lp95
(lp96
tp97
a(L3789820863L
L0L
(lp98
(lp99
tp100
a(L3697667349L
L0L
(lp101
(lp102
tp103
a(L622270575L
L1650168448L
(lp104
(lp105
tp106
atp107
sL3968L
(S'_ecurve2_add'
p108
(lp109
(L644269001L
L1650168448L
(lp110
(lp111
tp112
a(L133851771L
L0L
(lp113
(lp114
tp115
a(L3738563475L
L1650168448L
(lp116
(lp117
tp118
a(L96137660L
L1650168448L
(lp119
(lp120
tp121
a(L520110351L
L1912178190L
(lp122
(lp123
S'_mr_track'
p124
atp125
a(L3620928310L
L0L
(lp126
(lp127
tp128
a(L249261379L
L609169042L
(lp129
(lp130
S'_ecurve2_double'
p131
atp132
a(L1901318341L
L0L
(lp133
(lp134
tp135
a(L1660587065L
L1912178190L
(lp136
(lp137
S'_epoint2_copy'
p138
atp139
a(L3256594520L
L0L
(lp140
(lp141
tp142
a(L1834762201L
L0L
(lp143
(lp144
tp145
a(L2182295646L
L3438772250L
(lp146
(lp147
S'_ecurve2_padd'
p148
atp149
a(L3826236372L
L3438772250L
(lp150
(lp151
S'_ecurve2_double'
p152
atp153
a(L1293490903L
L2614424152L
(lp154
(lp155
tp156
atp157
sL15492L
(S'_modmult2'
p158
(lp159
(L425776429L
L0L
(lp160
(lp161
tp162
atp163
sL15496L
(S'_modsquare2'
p164
(lp165
(L425776429L
L0L
(lp166
(lp167
tp168
atp169
sL15472L
(S'_parity2'
p170
(lp171
(L425776429L
L0L
(lp172
(lp173
tp174
atp175
sL15536L
(S'_expb2'
p176
(lp177
(L425776429L
L0L
(lp178
(lp179
tp180
atp181
sL15500L
(S'_zero'
p182
(lp183
(L425776429L
L0L
(lp184
(lp185
tp186
atp187
sL15600L
(S'_mr_jsf'
p188
(lp189
(L425776429L
L0L
(lp190
(lp191
tp192
atp193
sL15584L
(S'_epoint_free'
p194
(lp195
(L425776429L
L0L
(lp196
(lp197
tp198
atp199
sL11120L
(S'_prepare_naf'
p200
(lp201
(L862731112L
L1650168448L
(lp202
(lp203
tp204
a(L3621163940L
L3438772250L
(lp205
(lp206
S'_tnaf'
p207
atp208
a(L2047986243L
L2337355976L
(lp209
(lp210
S'_copy'
p211
aS'_premult'
p212
aS'_subdiv'
p213
aS'_subdiv'
p214
atp215
atp216
sL15448L
(S'_mr_track'
p217
(lp218
(L425776429L
L0L
(lp219
(lp220
tp221
atp222
sL15508L
(S'_memkill'
p223
(lp224
(L425776429L
L0L
(lp225
(lp226
tp227
atp228
sL14816L
(S'_ebrick2_end'
p229
(lp230
(L1295362246L
L449713974L
(lp231
(lp232
S'_mirkill'
p233
aS'_mirkill'
p234
aS'_mr_free'
p235
atp236
atp237
sL15512L
(S'_multi_inverse2'
p238
(lp239
(L425776429L
L0L
(lp240
(lp241
tp242
atp243
sL14032L
(S'_ebrick2_init'
p244
(lp245
(L2068698747L
L0L
(lp246
(lp247
tp248
a(L2883404780L
L0L
(lp249
(lp250
tp251
a(L523981781L
L0L
(lp252
(lp253
tp254
a(L3823926016L
L1650168448L
(lp255
(lp256
tp257
a(L1639492191L
L0L
(lp258
(lp259
tp260
a(L1568283347L
L1650168448L
(lp261
(lp262
tp263
a(L1284446795L
L1650168448L
(lp264
(lp265
tp266
a(L520110351L
L1912178190L
(lp267
(lp268
S'_mr_track'
p269
atp270
a(L1878609397L
L0L
(lp271
(lp272
tp273
a(L1476073220L
L0L
(lp274
(lp275
tp276
a(L4161150886L
L3438772250L
(lp277
(lp278
S'_mr_berror'
p279
atp280
a(L3110991158L
L1650168448L
(lp281
(lp282
tp283
a(L1772041552L
L0L
(lp284
(lp285
tp286
a(L1498995885L
L3438772250L
(lp287
(lp288
S'_mr_alloc'
p289
atp290
a(L2534428269L
L0L
(lp291
(lp292
tp293
a(L4144847665L
L3104595698L
(lp294
(lp295
S'_mirvar'
p296
aS'_copy'
p297
aS'_mirvar'
p298
aS'_copy'
p299
aS'_ecurve2_init'
p300
atp301
a(L1499103601L
L0L
(lp302
(lp303
tp304
a(L840119231L
L0L
(lp305
(lp306
tp307
a(L1438071076L
L3104595698L
(lp308
(lp309
S'_epoint_init'
p310
aS'_epoint2_set'
p311
aS'_epoint_init'
p312
aS'_epoint_init'
p313
aS'_epoint2_copy'
p314
atp315
a(L179779481L
L0L
(lp316
(lp317
tp318
a(L696771975L
L3438772250L
(lp319
(lp320
S'_ecurve2_double'
p321
atp322
a(L314879898L
L0L
(lp323
(lp324
tp325
a(L1222848999L
L0L
(lp326
(lp327
tp328
a(L2388507334L
L3438772250L
(lp329
(lp330
S'_epoint_init'
p331
atp332
a(L1866127678L
L3438772250L
(lp333
(lp334
S'_epoint2_copy'
p335
atp336
a(L3114584143L
L0L
(lp337
(lp338
tp339
a(L987002940L
L3438772250L
(lp340
(lp341
S'_ecurve2_double'
p342
atp343
a(L3249209674L
L0L
(lp344
(lp345
tp346
a(L2941917805L
L0L
(lp347
(lp348
tp349
a(L3064945779L
L0L
(lp350
(lp351
tp352
a(L120979029L
L3438772250L
(lp353
(lp354
S'_ecurve2_add'
p355
atp356
a(L523423255L
L0L
(lp357
(lp358
tp359
a(L471643385L
L0L
(lp360
(lp361
tp362
a(L3307962793L
L0L
(lp363
(lp364
tp365
a(L1101882760L
L1354249480L
(lp366
(lp367
S'_epoint_free'
p368
aS'_mr_alloc'
p369
atp370
a(L3129381880L
L0L
(lp371
(lp372
tp373
a(L797539866L
L0L
(lp374
(lp375
tp376
a(L1242424743L
L0L
(lp377
(lp378
tp379
a(L797539866L
L0L
(lp380
(lp381
tp382
a(L3363152043L
L0L
(lp383
(lp384
tp385
a(L2076466801L
L3438772250L
(lp386
(lp387
S'_epoint_free'
p388
atp389
a(L477887666L
L1912178190L
(lp390
(lp391
S'_mr_free'
p392
atp393
atp394
sL15592L
(S'_mr_testbit'
p395
(lp396
(L425776429L
L0L
(lp397
(lp398
tp399
atp400
sL3744L
(S'_epoint2_comp'
p401
(lp402
(L1806946499L
L1650168448L
(lp403
(lp404
tp405
a(L2932620734L
L0L
(lp406
(lp407
tp408
a(L5811300L
L0L
(lp409
(lp410
tp411
a(L1901318341L
L0L
(lp412
(lp413
tp414
a(L3363020147L
L0L
(lp415
(lp416
tp417
a(L1924590835L
L0L
(lp418
(lp419
tp420
a(L2622929612L
L1650168448L
(lp421
(lp422
tp423
a(L3601047523L
L1650168448L
(lp424
(lp425
tp426
a(L520110351L
L1912178190L
(lp427
(lp428
S'_mr_track'
p429
atp430
a(L137461449L
L3551412508L
(lp431
(lp432
S'_epoint2_get'
p433
aS'_epoint2_get'
p434
atp435
a(L2160479811L
L434665910L
(lp436
(lp437
S'_mr_compare'
p438
atp439
a(L5811300L
L0L
(lp440
(lp441
tp442
a(L2110596432L
L0L
(lp443
(lp444
tp445
atp446
sL9392L
(S'_ecurve2_mult'
p447
(lp448
(L2685944421L
L1650168448L
(lp449
(lp450
tp451
a(L3738563475L
L1650168448L
(lp452
(lp453
tp454
a(L3539054016L
L1650168448L
(lp455
(lp456
tp457
a(L1868153140L
L3438772250L
(lp458
(lp459
S'_mr_track'
p460
atp461
a(L930654528L
L3438772250L
(lp462
(lp463
S'_size'
p464
atp465
a(L1760279301L
L0L
(lp466
(lp467
tp468
a(L2940969184L
L2631774156L
(lp469
(lp470
S'_epoint2_norm'
p471
aS'_epoint2_copy'
p472
aS'_copy'
p473
aS'_size'
p474
atp475
a(L839141828L
L3872313376L
(lp476
(lp477
S'_negify'
p478
aS'_epoint2_negate'
p479
atp480
a(L4273279943L
L434665910L
(lp481
(lp482
S'_size'
p483
atp484
a(L153643235L
L1650168448L
(lp485
(lp486
tp487
a(L2797827840L
L1015000508L
(lp488
(lp489
S'_prepare_naf'
p490
aS'_size'
p491
atp492
a(L4207827300L
L434665910L
(lp493
(lp494
S'_size'
p495
atp496
a(L193125004L
L0L
(lp497
(lp498
tp499
a(L833177092L
L1912178190L
(lp500
(lp501
S'_epoint2_set'
p502
atp503
a(L805502813L
L1650168448L
(lp504
(lp505
tp506
a(L3360687482L
L1354249480L
(lp507
(lp508
S'_ecp_memalloc'
p509
aS'_memalloc'
p510
atp511
a(L1868644036L
L1354249480L
(lp512
(lp513
S'_epoint_init_mem'
p514
aS'_mirvar_mem'
p515
atp516
a(L1949028987L
L2631774156L
(lp517
(lp518
S'_table_init'
p519
aS'_epoint2_multi_norm'
p520
aS'_logb2'
p521
aS'_logb2'
p522
atp523
a(L1236149464L
L3438772250L
(lp524
(lp525
S'_epoint2_negate'
p526
atp527
a(L2729703177L
L3438772250L
(lp528
(lp529
S'_epoint2_set'
p530
atp531
a(L2488105472L
L1650168448L
(lp532
(lp533
tp534
a(L520110351L
L1650168448L
(lp535
(lp536
tp537
a(L3374701945L
L3438772250L
(lp538
(lp539
S'_mr_naf_window'
p540
atp541
a(L1061010070L
L1650168448L
(lp542
(lp543
tp544
a(L2529103038L
L3438772250L
(lp545
(lp546
S'_frobenius'
p547
atp548
a(L1868153140L
L3438772250L
(lp549
(lp550
S'_ecurve2_double'
p551
atp552
a(L2867127252L
L0L
(lp553
(lp554
tp555
a(L2637043466L
L0L
(lp556
(lp557
tp558
a(L91231928L
L3438772250L
(lp559
(lp560
S'_ecurve2_add'
p561
atp562
a(L3255209645L
L0L
(lp563
(lp564
tp565
a(L1536673610L
L3438772250L
(lp566
(lp567
S'_ecurve2_sub'
p568
atp569
a(L1676119994L
L0L
(lp570
(lp571
tp572
a(L4013923302L
L0L
(lp573
(lp574
tp575
a(L2990654142L
L1650168448L
(lp576
(lp577
tp578
a(L2529103038L
L3438772250L
(lp579
(lp580
S'_frobenius'
p581
atp582
a(L1868153140L
L3438772250L
(lp583
(lp584
S'_ecurve2_double'
p585
atp586
a(L2622553156L
L0L
(lp587
(lp588
tp589
a(L1668408172L
L0L
(lp590
(lp591
tp592
a(L897742017L
L0L
(lp593
(lp594
tp595
a(L873077440L
L0L
(lp596
(lp597
tp598
a(L125367741L
L1354249480L
(lp599
(lp600
S'_ecp_memkill'
p601
aS'_memkill'
p602
atp603
a(L2529746585L
L1944868004L
(lp604
(lp605
S'_ecp_memalloc'
p606
aS'_epoint_init_mem'
p607
aS'_epoint2_copy'
p608
aS'_logb2'
p609
aS'_expb2'
p610
aS'_mr_psub'
p611
aS'_subdiv'
p612
aS'_size'
p613
atp614
a(L3698982887L
L1650168448L
(lp615
(lp616
tp617
a(L1868153140L
L0L
(lp618
(lp619
tp620
a(L2292754997L
L1190238782L
(lp621
(lp622
S'_ecurve2_double'
p623
aS'_mr_compare'
p624
aS'_mr_compare'
p625
atp626
a(L2644043615L
L0L
(lp627
(lp628
tp629
a(L171803806L
L3438772250L
(lp630
(lp631
S'_ecurve2_add'
p632
atp633
a(L4195317357L
L434665910L
(lp634
(lp635
S'_mr_psub'
p636
atp637
a(L615954938L
L0L
(lp638
(lp639
tp640
a(L1499103601L
L0L
(lp641
(lp642
tp643
a(L171803806L
L3438772250L
(lp644
(lp645
S'_ecurve2_sub'
p646
atp647
a(L223499146L
L434665910L
(lp648
(lp649
S'_mr_psub'
p650
atp651
a(L1798411082L
L1015000508L
(lp652
(lp653
S'_subdiv'
p654
aS'_size'
p655
atp656
a(L1846047631L
L0L
(lp657
(lp658
tp659
a(L577047784L
L3438772250L
(lp660
(lp661
S'_ecp_memkill'
p662
atp663
a(L3246016465L
L1912178190L
(lp664
(lp665
S'_epoint2_norm'
p666
atp667
a(L1290263993L
L0L
(lp668
(lp669
tp670
atp671
sL15524L
(S'_mr_alloc'
p672
(lp673
(L425776429L
L0L
(lp674
(lp675
tp676
atp677
sL15528L
(S'_subdiv'
p678
(lp679
(L425776429L
L0L
(lp680
(lp681
tp682
atp683
sL15516L
(S'_mirvar_mem'
p684
(lp685
(L425776429L
L0L
(lp686
(lp687
tp688
atp689
sL15520L
(S'_memalloc'
p690
(lp691
(L425776429L
L0L
(lp692
(lp693
tp694
atp695
sL15532L
(S'_mr_psub'
p696
(lp697
(L425776429L
L0L
(lp698
(lp699
tp700
atp701
sL15576L
(S'_subtract'
p702
(lp703
(L425776429L
L0L
(lp704
(lp705
tp706
atp707
sL12208L
(S'_ecurve2_multn'
p708
(lp709
(L3075057348L
L1650168448L
(lp710
(lp711
tp712
a(L278480694L
L1650168448L
(lp713
(lp714
tp715
a(L169748485L
L1650168448L
(lp716
(lp717
tp718
a(L1868153140L
L3438772250L
(lp719
(lp720
S'_mr_track'
p721
atp722
a(L2321352671L
L3438772250L
(lp723
(lp724
S'_mr_alloc'
p725
atp726
a(L1345494250L
L0L
(lp727
(lp728
tp729
a(L145973076L
L0L
(lp730
(lp731
tp732
a(L3546626343L
L0L
(lp733
(lp734
tp735
a(L3179953246L
L1354249480L
(lp736
(lp737
S'_epoint_init'
p738
aS'_epoint2_copy'
p739
atp740
a(L1621085272L
L3438772250L
(lp741
(lp742
S'_ecurve2_add'
p743
atp744
a(L1159165889L
L0L
(lp745
(lp746
tp747
a(L2211844380L
L0L
(lp748
(lp749
tp750
a(L1230470711L
L0L
(lp751
(lp752
tp753
a(L4193462046L
L0L
(lp754
(lp755
tp756
a(L3024610951L
L0L
(lp757
(lp758
tp759
a(L1676957439L
L3438772250L
(lp760
(lp761
S'_logb2'
p762
atp763
a(L1453871292L
L0L
(lp764
(lp765
tp766
a(L301107686L
L0L
(lp767
(lp768
tp769
a(L3238935905L
L1912178190L
(lp770
(lp771
S'_epoint2_set'
p772
atp773
a(L4018539825L
L0L
(lp774
(lp775
tp776
a(L3249209674L
L0L
(lp777
(lp778
tp779
a(L1795816891L
L1650168448L
(lp780
(lp781
tp782
a(L678392971L
L0L
(lp783
(lp784
tp785
a(L1868153140L
L0L
(lp786
(lp787
tp788
a(L2335190445L
L0L
(lp789
(lp790
tp791
a(L1515566135L
L0L
(lp792
(lp793
tp794
a(L1504241545L
L3438772250L
(lp795
(lp796
S'_mr_testbit'
p797
atp798
a(L3923119558L
L0L
(lp799
(lp800
tp801
a(L3429854948L
L0L
(lp802
(lp803
tp804
a(L1645469826L
L0L
(lp805
(lp806
tp807
a(L4052862310L
L3438772250L
(lp808
(lp809
S'_ecurve2_double'
p810
atp811
a(L796825172L
L3438772250L
(lp812
(lp813
S'_ecurve2_add'
p814
atp815
a(L1212052134L
L0L
(lp816
(lp817
tp818
a(L1564567634L
L0L
(lp819
(lp820
tp821
a(L2512760270L
L3438772250L
(lp822
(lp823
S'_mr_berror'
p824
atp825
a(L1460945873L
L0L
(lp826
(lp827
tp828
a(L3389594762L
L0L
(lp829
(lp830
tp831
a(L161673038L
L3438772250L
(lp832
(lp833
S'_epoint_free'
p834
atp835
a(L714385141L
L1912178190L
(lp836
(lp837
S'_mr_free'
p838
atp839
a(L1281538756L
L0L
(lp840
(lp841
tp842
atp843
sL15560L
(S'_negify'
p844
(lp845
(L425776429L
L0L
(lp846
(lp847
tp848
atp849
sL15568L
(S'_add'
p850
(lp851
(L425776429L
L0L
(lp852
(lp853
tp854
atp855
sL15540L
(S'_ecp_memkill'
p856
(lp857
(L425776429L
L0L
(lp858
(lp859
tp860
atp861
sL14864L
(S'_mul2_brick'
p862
(lp863
(L2958612880L
L3438772250L
(lp864
(lp865
S'_size'
p866
atp867
a(L2215257106L
L3438772250L
(lp868
(lp869
S'_mr_berror'
p870
atp871
a(L3827518777L
L2614424152L
(lp872
(lp873
tp874
a(L1994787300L
L1650168448L
(lp875
(lp876
tp877
a(L520110351L
L1912178190L
(lp878
(lp879
S'_mr_track'
p880
atp881
a(L994666789L
L0L
(lp882
(lp883
tp884
a(L135049710L
L1912178190L
(lp885
(lp886
S'_mr_berror'
p887
atp888
a(L4137354413L
L3438772250L
(lp889
(lp890
S'_logb2'
p891
atp892
a(L3052874881L
L1912178190L
(lp893
(lp894
S'_mr_berror'
p895
atp896
a(L2613736875L
L3438772250L
(lp897
(lp898
S'_ecurve2_init'
p899
atp900
a(L2736199736L
L1650168448L
(lp901
(lp902
tp903
a(L455996545L
L449713974L
(lp904
(lp905
S'_ecp_memalloc'
p906
aS'_epoint_init_mem'
p907
aS'_epoint_init_mem'
p908
atp909
a(L2881385518L
L0L
(lp910
(lp911
tp912
a(L2301864071L
L3438772250L
(lp913
(lp914
S'_recode'
p915
atp916
a(L1229978738L
L3438772250L
(lp917
(lp918
S'_init_point_from_rom'
p919
atp920
a(L3683020700L
L0L
(lp921
(lp922
tp923
a(L3249209674L
L0L
(lp924
(lp925
tp926
a(L3049323622L
L0L
(lp927
(lp928
tp929
a(L2354431090L
L1354249480L
(lp930
(lp931
S'_recode'
p932
aS'_ecurve2_double'
p933
atp934
a(L3098893843L
L1354249480L
(lp935
(lp936
S'_init_point_from_rom'
p937
aS'_ecurve2_add'
p938
atp939
a(L561570974L
L0L
(lp940
(lp941
tp942
a(L4181645287L
L3504974572L
(lp943
(lp944
S'_epoint2_get'
p945
aS'_ecp_memkill'
p946
atp947
atp948
sL1600L
(S'_epoint2_norm'
p949
(lp950
(L4082302905L
L1650168448L
(lp951
(lp952
tp953
a(L2016462864L
L0L
(lp954
(lp955
tp956
a(L1271429262L
L0L
(lp957
(lp958
tp959
a(L133851771L
L0L
(lp960
(lp961
tp962
a(L2622929612L
L1650168448L
(lp963
(lp964
tp965
a(L652162363L
L1650168448L
(lp966
(lp967
tp968
a(L520110351L
L1912178190L
(lp969
(lp970
S'_mr_track'
p971
atp972
a(L2949476469L
L3438772250L
(lp973
(lp974
S'_inverse2'
p975
atp976
a(L1922031694L
L1650168448L
(lp977
(lp978
tp979
a(L1375585544L
L1650168448L
(lp980
(lp981
tp982
a(L2789120094L
L2941833480L
(lp983
(lp984
S'_modmult2'
p985
aS'_modmult2'
p986
atp987
a(L482974707L
L1190238782L
(lp988
(lp989
S'_modmult2'
p990
aS'_modsquare2'
p991
aS'_modmult2'
p992
atp993
a(L2796233736L
L1912178190L
(lp994
(lp995
S'_convert'
p996
atp997
a(L3991957471L
L0L
(lp998
(lp999
tp1000
atp1001
sL15604L
(S'_mirvar'
p1002
(lp1003
(L425776429L
L0L
(lp1004
(lp1005
tp1006
atp1007
sL15548L
(S'_logb2'
p1008
(lp1009
(L425776429L
L0L
(lp1010
(lp1011
tp1012
atp1013
sL8944L
(S'_epoint2_multi_norm'
p1014
(lp1015
(L3504828270L
L1650168448L
(lp1016
(lp1017
tp1018
a(L1271429262L
L0L
(lp1019
(lp1020
tp1021
a(L2494446496L
L0L
(lp1022
(lp1023
tp1024
a(L2393361652L
L0L
(lp1025
(lp1026
tp1027
a(L2494446496L
L0L
(lp1028
(lp1029
tp1030
a(L2374463704L
L1650168448L
(lp1031
(lp1032
tp1033
a(L1201698881L
L1650168448L
(lp1034
(lp1035
tp1036
a(L520110351L
L1912178190L
(lp1037
(lp1038
S'_mr_track'
p1039
atp1040
a(L1554957174L
L0L
(lp1041
(lp1042
tp1043
a(L1720785643L
L0L
(lp1044
(lp1045
tp1046
a(L3329198470L
L0L
(lp1047
(lp1048
tp1049
a(L931608681L
L0L
(lp1050
(lp1051
tp1052
a(L2349070719L
L0L
(lp1053
(lp1054
tp1055
a(L2958129978L
L0L
(lp1056
(lp1057
tp1058
a(L902293796L
L3438772250L
(lp1059
(lp1060
S'_multi_inverse2'
p1061
atp1062
a(L3848377053L
L1650168448L
(lp1063
(lp1064
tp1065
a(L357216L
L0L
(lp1066
(lp1067
tp1068
a(L2470351782L
L0L
(lp1069
(lp1070
tp1071
a(L4183900650L
L4079538650L
(lp1072
(lp1073
S'_copy'
p1074
atp1075
a(L1786492981L
L1354249480L
(lp1076
(lp1077
S'_modmult2'
p1078
aS'_modmult2'
p1079
atp1080
a(L2618111650L
L1190238782L
(lp1081
(lp1082
S'_modmult2'
p1083
aS'_modmult2'
p1084
aS'_modmult2'
p1085
atp1086
a(L618378813L
L0L
(lp1087
(lp1088
tp1089
a(L3110991158L
L1650168448L
(lp1090
(lp1091
tp1092
a(L1727950056L
L0L
(lp1093
(lp1094
tp1095
atp1096
sL12736L
(S'_ecurve2_mult2'
p1097
(lp1098
(L4196862767L
L1650168448L
(lp1099
(lp1100
tp1101
a(L3738563475L
L1650168448L
(lp1102
(lp1103
tp1104
a(L1874417010L
L1650168448L
(lp1105
(lp1106
tp1107
a(L1868153140L
L3438772250L
(lp1108
(lp1109
S'_mr_track'
p1110
atp1111
a(L2340248194L
L3438772250L
(lp1112
(lp1113
S'_size'
p1114
atp1115
a(L3191302085L
L1912178190L
(lp1116
(lp1117
S'_ecurve2_mult'
p1118
atp1119
a(L1961479726L
L1726378234L
(lp1120
(lp1121
S'_ecp_memalloc'
p1122
aS'_epoint_init_mem'
p1123
aS'_epoint_init_mem'
p1124
aS'_epoint_init_mem'
p1125
aS'_epoint_init_mem'
p1126
aS'_epoint2_norm'
p1127
aS'_epoint2_copy'
p1128
aS'_copy'
p1129
aS'_size'
p1130
atp1131
a(L2941654862L
L3872313376L
(lp1132
(lp1133
S'_negify'
p1134
aS'_epoint2_negate'
p1135
atp1136
a(L1639158602L
L2631774156L
(lp1137
(lp1138
S'_epoint2_norm'
p1139
aS'_epoint2_copy'
p1140
aS'_copy'
p1141
aS'_size'
p1142
atp1143
a(L3437817403L
L3872313376L
(lp1144
(lp1145
S'_negify'
p1146
aS'_epoint2_negate'
p1147
atp1148
a(L862731112L
L1650168448L
(lp1149
(lp1150
tp1151
a(L1626232716L
L2941833480L
(lp1152
(lp1153
S'_prepare_naf'
p1154
aS'_prepare_naf'
p1155
atp1156
a(L1980916686L
L3438772250L
(lp1157
(lp1158
S'_mr_jsf'
p1159
atp1160
a(L459151303L
L1015000508L
(lp1161
(lp1162
S'_logb2'
p1163
aS'_logb2'
p1164
atp1165
a(L1075906510L
L0L
(lp1166
(lp1167
tp1168
a(L2466872747L
L434665910L
(lp1169
(lp1170
S'_logb2'
p1171
atp1172
a(L1075906510L
L0L
(lp1173
(lp1174
tp1175
a(L4159541337L
L434665910L
(lp1176
(lp1177
S'_logb2'
p1178
atp1179
a(L1075906510L
L0L
(lp1180
(lp1181
tp1182
a(L6910487L
L3063945352L
(lp1183
(lp1184
S'_epoint2_set'
p1185
aS'_expb2'
p1186
aS'_epoint2_copy'
p1187
aS'_ecurve2_add'
p1188
aS'_epoint2_copy'
p1189
aS'_ecurve2_sub'
p1190
aS'_epoint2_multi_norm'
p1191
aS'_size'
p1192
atp1193
a(L3698982887L
L1650168448L
(lp1194
(lp1195
tp1196
a(L1868153140L
L0L
(lp1197
(lp1198
tp1199
a(L862731112L
L1650168448L
(lp1200
(lp1201
tp1202
a(L4024056964L
L3438772250L
(lp1203
(lp1204
S'_frobenius'
p1205
atp1206
a(L2129951396L
L3438772250L
(lp1207
(lp1208
S'_ecurve2_double'
p1209
atp1210
a(L2306939286L
L434665910L
(lp1211
(lp1212
S'_mr_compare'
p1213
atp1214
a(L3910251573L
L434665910L
(lp1215
(lp1216
S'_mr_psub'
p1217
atp1218
a(L379373979L
L434665910L
(lp1219
(lp1220
S'_mr_compare'
p1221
atp1222
a(L1460388112L
L434665910L
(lp1223
(lp1224
S'_mr_psub'
p1225
atp1226
a(L2924180201L
L434665910L
(lp1227
(lp1228
S'_mr_compare'
p1229
atp1230
a(L4221202396L
L434665910L
(lp1231
(lp1232
S'_mr_psub'
p1233
atp1234
a(L1276424325L
L434665910L
(lp1235
(lp1236
S'_mr_compare'
p1237
atp1238
a(L3361736217L
L434665910L
(lp1239
(lp1240
S'_mr_psub'
p1241
atp1242
a(L1241689314L
L0L
(lp1243
(lp1244
tp1245
a(L1619743090L
L0L
(lp1246
(lp1247
tp1248
a(L3473768419L
L0L
(lp1249
(lp1250
tp1251
a(L1056289504L
L3438772250L
(lp1252
(lp1253
S'_ecurve2_add'
p1254
atp1255
a(L749804940L
L0L
(lp1256
(lp1257
tp1258
a(L3473768419L
L0L
(lp1259
(lp1260
tp1261
a(L1639800627L
L0L
(lp1262
(lp1263
tp1264
a(L2237908661L
L3438772250L
(lp1265
(lp1266
S'_ecurve2_add'
p1267
atp1268
a(L3338299702L
L3438772250L
(lp1269
(lp1270
S'_ecurve2_add'
p1271
atp1272
a(L4283476518L
L0L
(lp1273
(lp1274
tp1275
a(L2665611738L
L0L
(lp1276
(lp1277
tp1278
a(L774463365L
L0L
(lp1279
(lp1280
tp1281
a(L3690677427L
L0L
(lp1282
(lp1283
tp1284
a(L4283476518L
L0L
(lp1285
(lp1286
tp1287
a(L2806785199L
L3438772250L
(lp1288
(lp1289
S'_ecurve2_add'
p1290
atp1291
a(L1423077901L
L0L
(lp1292
(lp1293
tp1294
a(L199125242L
L0L
(lp1295
(lp1296
tp1297
a(L1868153140L
L3438772250L
(lp1298
(lp1299
S'_ecurve2_sub'
p1300
atp1301
a(L2553269302L
L0L
(lp1302
(lp1303
tp1304
a(L1798411082L
L1015000508L
(lp1305
(lp1306
S'_subdiv'
p1307
aS'_size'
p1308
atp1309
a(L2521318940L
L0L
(lp1310
(lp1311
tp1312
a(L532650408L
L1912178190L
(lp1313
(lp1314
S'_ecp_memkill'
p1315
atp1316
a(L2274595573L
L0L
(lp1317
(lp1318
tp1319
atp1320
sL7136L
(S'_epoint2_negate'
p1321
(lp1322
(L108603268L
L1650168448L
(lp1323
(lp1324
tp1325
a(L2446420719L
L0L
(lp1326
(lp1327
tp1328
a(L2622929612L
L1650168448L
(lp1329
(lp1330
tp1331
a(L2887374773L
L1650168448L
(lp1332
(lp1333
tp1334
a(L520110351L
L1912178190L
(lp1335
(lp1336
S'_mr_track'
p1337
atp1338
a(L1236264214L
L0L
(lp1339
(lp1340
tp1341
a(L3705841476L
L0L
(lp1342
(lp1343
tp1344
a(L1006355532L
L0L
(lp1345
(lp1346
tp1347
a(L2444653192L
L3551412508L
(lp1348
(lp1349
S'_modmult2'
p1350
aS'_add2'
p1351
atp1352
a(L3705841476L
L0L
(lp1353
(lp1354
tp1355
a(L2052748179L
L1912178190L
(lp1356
(lp1357
S'_incr2'
p1358
atp1359
a(L279045721L
L0L
(lp1360
(lp1361
tp1362
a(L454872425L
L1912178190L
(lp1363
(lp1364
S'_add2'
p1365
atp1366
a(L1356022597L
L0L
(lp1367
(lp1368
tp1369
atp1370
sL15556L
(S'_ecp_memalloc'
p1371
(lp1372
(L425776429L
L0L
(lp1373
(lp1374
tp1375
atp1376
sL15440L
(S'_copy'
p1377
(lp1378
(L425776429L
L0L
(lp1379
(lp1380
tp1381
atp1382
sL4192L
(S'_ecurve2_padd'
p1383
(lp1384
(L4139476271L
L1650168448L
(lp1385
(lp1386
tp1387
a(L3594238858L
L1997743146L
(lp1388
(lp1389
S'_add2'
p1390
aS'_add2'
p1391
aS'_size'
p1392
atp1393
a(L4277110137L
L0L
(lp1394
(lp1395
tp1396
a(L3879556797L
L3438772250L
(lp1397
(lp1398
S'_size'
p1399
atp1400
a(L2222856904L
L0L
(lp1401
(lp1402
tp1403
a(L4234568620L
L1997743146L
(lp1404
(lp1405
S'_inverse2'
p1406
aS'_modmult2'
p1407
aS'_modsquare2'
p1408
atp1409
a(L1691735254L
L2612143048L
(lp1410
(lp1411
S'_add2'
p1412
aS'_add2'
p1413
aS'_add2'
p1414
aS'_modmult2'
p1415
aS'_add2'
p1416
aS'_incr2'
p1417
atp1418
a(L3741714248L
L1294000603L
(lp1419
L1073741824L
a(lp1420
S'_add2'
p1421
aS'_add2'
p1422
atp1423
a(L815942099L
L3438772250L
(lp1424
(lp1425
S'_add2'
p1426
atp1427
a(L2745337684L
L3438772250L
(lp1428
(lp1429
S'_incr2'
p1430
atp1431
a(L1680755817L
L3652417470L
(lp1432
(lp1433
S'_add2'
p1434
aS'_modmult2'
p1435
aS'_copy'
p1436
aS'_add2'
p1437
aS'_add2'
p1438
atp1439
a(L2808016240L
L0L
(lp1440
(lp1441
tp1442
a(L2362923341L
L0L
(lp1443
(lp1444
tp1445
a(L629974656L
L3551412508L
(lp1446
(lp1447
S'_modmult2'
p1448
aS'_modmult2'
p1449
atp1450
a(L3757705884L
L3438772250L
(lp1451
(lp1452
S'_copy'
p1453
atp1454
a(L3593105790L
L3438772250L
(lp1455
(lp1456
S'_modmult2'
p1457
atp1458
a(L2045451496L
L0L
(lp1459
(lp1460
tp1461
a(L1169829856L
L3438772250L
(lp1462
(lp1463
S'_convert'
p1464
atp1465
a(L3072607691L
L3438772250L
(lp1466
(lp1467
S'_copy'
p1468
atp1469
a(L4220641696L
L1015000508L
(lp1470
(lp1471
S'_copy'
p1472
aS'_copy'
p1473
atp1474
a(L2733658925L
L0L
(lp1475
(lp1476
tp1477
a(L2653849085L
L1015000508L
(lp1478
(lp1479
S'_modmult2'
p1480
aS'_modmult2'
p1481
atp1482
a(L1752902000L
L1015000508L
(lp1483
(lp1484
S'_copy'
p1485
aS'_copy'
p1486
atp1487
a(L2361236670L
L3606524018L
(lp1488
(lp1489
S'_add2'
p1490
aS'_add2'
p1491
aS'_size'
p1492
atp1493
a(L1781497148L
L1650168448L
(lp1494
(lp1495
tp1496
a(L3840781242L
L2490754712L
(lp1497
(lp1498
S'_modsquare2'
p1499
aS'_modmult2'
p1500
aS'_modmult2'
p1501
aS'_modsquare2'
p1502
aS'_modmult2'
p1503
aS'_add2'
p1504
aS'_modmult2'
p1505
aS'_modsquare2'
p1506
aS'_modmult2'
p1507
aS'_add2'
p1508
aS'_modmult2'
p1509
aS'_add2'
p1510
aS'_modmult2'
p1511
aS'_add2'
p1512
atp1513
a(L2961011627L
L0L
(lp1514
(lp1515
tp1516
a(L2720262695L
L0L
(lp1517
(lp1518
tp1519
a(L960322629L
L3438772250L
(lp1520
(lp1521
S'_modmult2'
p1522
atp1523
a(L529420781L
L3438772250L
(lp1524
(lp1525
S'_copy'
p1526
atp1527
a(L1542828000L
L91788322L
(lp1528
(lp1529
S'_modmult2'
p1530
aS'_add2'
p1531
aS'_modsquare2'
p1532
aS'_modsquare2'
p1533
aS'_add2'
p1534
atp1535
a(L1912399356L
L1015000508L
(lp1536
(lp1537
S'_modsquare2'
p1538
aS'_modmult2'
p1539
atp1540
a(L2370033543L
L434665910L
(lp1541
(lp1542
S'_copy'
p1543
atp1544
a(L2916829899L
L3354477492L
(lp1545
(lp1546
S'_modsquare2'
p1547
aS'_modmult2'
p1548
aS'_add2'
p1549
aS'_add2'
p1550
aS'_add2'
p1551
aS'_size'
p1552
atp1553
a(L1424117865L
L1650168448L
(lp1554
(lp1555
tp1556
a(L2127910387L
L434665910L
(lp1557
(lp1558
S'_modmult2'
p1559
atp1560
a(L4024422294L
L3438772250L
(lp1561
(lp1562
S'_modmult2'
p1563
atp1564
a(L459912736L
L3438772250L
(lp1565
(lp1566
S'_copy'
p1567
atp1568
a(L3914387374L
L3963345986L
(lp1569
(lp1570
S'_modmult2'
p1571
aS'_modmult2'
p1572
aS'_modmult2'
p1573
aS'_add2'
p1574
aS'_modmult2'
p1575
aS'_modmult2'
p1576
aS'_add2'
p1577
aS'_modmult2'
p1578
aS'_add2'
p1579
aS'_modmult2'
p1580
aS'_add2'
p1581
atp1582
a(L2720262695L
L0L
(lp1583
(lp1584
tp1585
a(L49169013L
L91788322L
(lp1586
(lp1587
S'_modsquare2'
p1588
aS'_modmult2'
p1589
aS'_add2'
p1590
aS'_modmult2'
p1591
aS'_add2'
p1592
atp1593
a(L224323791L
L2941833480L
(lp1594
(lp1595
S'_add2'
p1596
aS'_add2'
p1597
atp1598
a(L3143490994L
L434665910L
(lp1599
(lp1600
S'_size'
p1601
atp1602
a(L3791609010L
L434665910L
(lp1603
(lp1604
S'_size'
p1605
atp1606
a(L2222856904L
L0L
(lp1607
(lp1608
tp1609
a(L1794089132L
L3438772250L
(lp1610
(lp1611
S'_epoint2_set'
p1612
atp1613
a(L3609944333L
L1650168448L
(lp1614
(lp1615
tp1616
a(L3593105790L
L3438772250L
(lp1617
(lp1618
S'_modmult2'
p1619
atp1620
a(L4161150890L
L3438772250L
(lp1621
(lp1622
S'_copy'
p1623
atp1624
a(L399293578L
L3617780156L
(lp1625
(lp1626
S'_modsquare2'
p1627
aS'_modmult2'
p1628
aS'_add2'
p1629
aS'_modsquare2'
p1630
aS'_modsquare2'
p1631
aS'_add2'
p1632
atp1633
a(L1305820914L
L0L
(lp1634
(lp1635
tp1636
a(L2010339231L
L3667354999L
(lp1637
L1073741824L
a(lp1638
tp1639
a(L3214524240L
L3438772250L
(lp1640
(lp1641
S'_copy'
p1642
atp1643
a(L2592009587L
L3438772250L
(lp1644
(lp1645
S'_convert'
p1646
atp1647
a(L3937354903L
L1015000508L
(lp1648
(lp1649
S'_modmult2'
p1650
aS'_add2'
p1651
atp1652
a(L443012034L
L3438772250L
(lp1653
(lp1654
S'_add2'
p1655
atp1656
a(L1795816891L
L1650168448L
(lp1657
(lp1658
tp1659
a(L3954362094L
L1001728106L
(lp1660
(lp1661
S'_modmult2'
p1662
aS'_add2'
p1663
aS'_add2'
p1664
aS'_modmult2'
p1665
aS'_add2'
p1666
aS'_modmult2'
p1667
aS'_modsquare2'
p1668
aS'_modmult2'
p1669
aS'_add2'
p1670
atp1671
atp1672
sL15504L
(S'_mr_free'
p1673
(lp1674
(L425776429L
L0L
(lp1675
(lp1676
tp1677
atp1678
sL15564L
(S'_premult'
p1679
(lp1680
(L425776429L
L0L
(lp1681
(lp1682
tp1683
atp1684
sL11216L
(S'_tnaf'
p1685
(lp1686
(L2913283683L
L3606524018L
(lp1687
(lp1688
S'_mr_alloc'
p1689
aS'_copy'
p1690
aS'_zero'
p1691
atp1692
a(L691435457L
L0L
(lp1693
(lp1694
tp1695
a(L2707313246L
L0L
(lp1696
(lp1697
tp1698
a(L4207078039L
L434665910L
(lp1699
(lp1700
S'_size'
p1701
atp1702
a(L1070583360L
L434665910L
(lp1703
(lp1704
S'_size'
p1705
atp1706
a(L815032253L
L434665910L
(lp1707
(lp1708
S'_remain'
p1709
atp1710
a(L1832093230L
L3606524018L
(lp1711
(lp1712
S'_premult'
p1713
aS'_subtract'
p1714
aS'_remain'
p1715
atp1716
a(L4150654368L
L0L
(lp1717
(lp1718
tp1719
a(L311747209L
L434665910L
(lp1720
(lp1721
S'_decr'
p1722
atp1723
a(L4224388742L
L4079538650L
(lp1724
(lp1725
S'_subdiv'
p1726
atp1727
a(L2529103038L
L3438772250L
(lp1728
(lp1729
S'_add'
p1730
atp1731
a(L1868153140L
L3438772250L
(lp1732
(lp1733
S'_subtract'
p1734
atp1735
a(L178149781L
L434665910L
(lp1736
(lp1737
S'_negify'
p1738
atp1739
a(L908582376L
L0L
(lp1740
(lp1741
tp1742
a(L1507416049L
L0L
(lp1743
(lp1744
tp1745
a(L471864411L
L0L
(lp1746
(lp1747
tp1748
a(L169215537L
L0L
(lp1749
(lp1750
tp1751
a(L1781976661L
L0L
(lp1752
(lp1753
tp1754
a(L3059370019L
L0L
(lp1755
(lp1756
tp1757
a(L1036543076L
L0L
(lp1758
(lp1759
tp1760
a(L2185270315L
L0L
(lp1761
(lp1762
tp1763
a(L3513152353L
L0L
(lp1764
(lp1765
tp1766
a(L4011819152L
L3438772250L
(lp1767
(lp1768
S'_itnaf'
p1769
atp1770
a(L3525936899L
L0L
(lp1771
(lp1772
tp1773
a(L666619479L
L0L
(lp1774
(lp1775
tp1776
a(L1453871292L
L0L
(lp1777
(lp1778
tp1779
a(L3616026177L
L0L
(lp1780
(lp1781
tp1782
a(L3995624059L
L0L
(lp1783
(lp1784
tp1785
a(L3419677721L
L0L
(lp1786
(lp1787
tp1788
a(L2610737814L
L0L
(lp1789
(lp1790
tp1791
a(L1270471764L
L0L
(lp1792
(lp1793
tp1794
a(L3060890207L
L0L
(lp1795
(lp1796
tp1797
a(L3249209674L
L0L
(lp1798
(lp1799
tp1800
a(L1914802420L
L1354249480L
(lp1801
(lp1802
S'_zero'
p1803
aS'_zero'
p1804
atp1805
a(L1152527582L
L0L
(lp1806
(lp1807
tp1808
a(L3639661082L
L1015000508L
(lp1809
(lp1810
S'_expb2'
p1811
aS'_add'
p1812
atp1813
a(L4101441032L
L0L
(lp1814
(lp1815
tp1816
a(L4032242632L
L1015000508L
(lp1817
(lp1818
S'_expb2'
p1819
aS'_add'
p1820
atp1821
a(L2613136202L
L0L
(lp1822
(lp1823
tp1824
a(L430339037L
L3438772250L
(lp1825
(lp1826
S'_mr_free'
p1827
atp1828
atp1829
sL15544L
(S'_mr_naf_window'
p1830
(lp1831
(L425776429L
L0L
(lp1832
(lp1833
tp1834
atp1835
sL7568L
(S'_ecurve2_multi_add'
p1836
(lp1837
(L3849895499L
L1650168448L
(lp1838
(lp1839
tp1840
a(L1127135805L
L1650168448L
(lp1841
(lp1842
tp1843
a(L3894038319L
L1650168448L
(lp1844
(lp1845
tp1846
a(L520110351L
L1912178190L
(lp1847
(lp1848
S'_mr_track'
p1849
atp1850
a(L1814809575L
L0L
(lp1851
(lp1852
tp1853
a(L1392351238L
L0L
(lp1854
(lp1855
tp1856
a(L2163125495L
L0L
(lp1857
(lp1858
tp1859
a(L765505306L
L3438772250L
(lp1860
(lp1861
S'_ecurve2_add'
p1862
atp1863
a(L1738767329L
L1650168448L
(lp1864
(lp1865
tp1866
a(L1240989109L
L0L
(lp1867
(lp1868
tp1869
a(L3750898009L
L2436924336L
(lp1870
(lp1871
S'_mr_alloc'
p1872
aS'_mr_alloc'
p1873
aS'_mr_alloc'
p1874
aS'_mr_alloc'
p1875
aS'_convert'
p1876
aS'_memalloc'
p1877
atp1878
a(L537112575L
L0L
(lp1879
(lp1880
tp1881
a(L1428216617L
L0L
(lp1882
(lp1883
tp1884
a(L3070076458L
L1439904598L
(lp1885
L4294967294L
a(lp1886
S'_mirvar_mem'
p1887
aS'_mirvar_mem'
p1888
aS'_mirvar_mem'
p1889
aS'_mr_compare'
p1890
atp1891
a(L2337090336L
L3438772250L
(lp1892
(lp1893
S'_mr_compare'
p1894
atp1895
a(L1087525266L
L0L
(lp1896
(lp1897
tp1898
a(L2504317807L
L3438772250L
(lp1899
(lp1900
S'_size'
p1901
atp1902
a(L752847477L
L449713974L
(lp1903
(lp1904
S'_modsquare2'
p1905
aS'_add2'
p1906
aS'_copy'
p1907
atp1908
a(L2642385229L
L0L
(lp1909
(lp1910
tp1911
a(L1243219047L
L0L
(lp1912
(lp1913
tp1914
a(L3780530208L
L0L
(lp1915
(lp1916
tp1917
a(L1309124665L
L434665910L
(lp1918
(lp1919
S'_copy'
p1920
atp1921
a(L3066869656L
L1354249480L
(lp1922
(lp1923
S'_add2'
p1924
aS'_size'
p1925
atp1926
a(L4140434384L
L0L
(lp1927
(lp1928
tp1929
a(L44636434L
L434665910L
(lp1930
(lp1931
S'_copy'
p1932
atp1933
a(L867920104L
L3438772250L
(lp1934
(lp1935
S'_add2'
p1936
atp1937
a(L466336724L
L0L
(lp1938
(lp1939
tp1940
a(L2269167936L
L0L
(lp1941
(lp1942
tp1943
a(L1200410890L
L3438772250L
(lp1944
(lp1945
S'_multi_inverse2'
p1946
atp1947
a(L2073273108L
L0L
(lp1948
(lp1949
tp1950
a(L3443477525L
L0L
(lp1951
(lp1952
tp1953
a(L1923857491L
L0L
(lp1954
(lp1955
tp1956
a(L607096171L
L3438772250L
(lp1957
(lp1958
S'_epoint2_set'
p1959
atp1960
a(L2539943509L
L0L
(lp1961
(lp1962
tp1963
a(L3271027031L
L0L
(lp1964
(lp1965
tp1966
a(L1853818104L
L3438772250L
(lp1967
(lp1968
S'_epoint2_copy'
p1969
atp1970
a(L746910399L
L513803401L
(lp1971
L1073741824L
a(lp1972
S'_modmult2'
p1973
aS'_modsquare2'
p1974
aS'_add2'
p1975
aS'_add2'
p1976
aS'_add2'
p1977
atp1978
a(L2963355104L
L3438772250L
(lp1979
(lp1980
S'_add2'
p1981
atp1982
a(L2304158757L
L3438772250L
(lp1983
(lp1984
S'_incr2'
p1985
atp1986
a(L1500621306L
L3652417470L
(lp1987
(lp1988
S'_add2'
p1989
aS'_modmult2'
p1990
aS'_add2'
p1991
aS'_add2'
p1992
aS'_copy'
p1993
atp1994
a(L618378813L
L0L
(lp1995
(lp1996
tp1997
a(L3153387408L
L0L
(lp1998
(lp1999
tp2000
a(L2046334658L
L2141623094L
(lp2001
(lp2002
S'_memkill'
p2003
aS'_mr_free'
p2004
aS'_mr_free'
p2005
aS'_mr_free'
p2006
aS'_mr_free'
p2007
atp2008
a(L1392351238L
L0L
(lp2009
(lp2010
tp2011
a(L2163125495L
L0L
(lp2012
(lp2013
tp2014
a(L3031141364L
L3438772250L
(lp2015
(lp2016
S'_ecurve2_add'
p2017
atp2018
a(L1795816891L
L1650168448L
(lp2019
(lp2020
tp2021
a(L2140119133L
L0L
(lp2022
(lp2023
tp2024
a(L3531232167L
L0L
(lp2025
(lp2026
tp2027
atp2028
sL10688L
(S'_table_init'
p2029
(lp2030
(L3376244923L
L1650168448L
(lp2031
(lp2032
tp2033
a(L3364855372L
L2337355976L
(lp2034
(lp2035
S'_epoint2_copy'
p2036
aS'_epoint2_copy'
p2037
aS'_frobenius'
p2038
aS'_frobenius'
p2039
atp2040
a(L3299170437L
L0L
(lp2041
(lp2042
tp2043
a(L585971138L
L0L
(lp2044
(lp2045
tp2046
a(L341750862L
L0L
(lp2047
(lp2048
tp2049
a(L2081583368L
L0L
(lp2050
(lp2051
tp2052
a(L1807953247L
L0L
(lp2053
(lp2054
tp2055
a(L931795941L
L3438772250L
(lp2056
(lp2057
S'_frobenius'
p2058
atp2059
a(L2923759874L
L0L
(lp2060
(lp2061
tp2062
a(L1504103424L
L0L
(lp2063
(lp2064
tp2065
a(L381718735L
L0L
(lp2066
(lp2067
tp2068
a(L618495258L
L3438772250L
(lp2069
(lp2070
S'_ecurve2_sub'
p2071
atp2072
a(L1504103424L
L0L
(lp2073
(lp2074
tp2075
a(L1828426421L
L3438772250L
(lp2076
(lp2077
S'_epoint2_copy'
p2078
atp2079
a(L3255209645L
L0L
(lp2080
(lp2081
tp2082
a(L2626748789L
L1354249480L
(lp2083
(lp2084
S'_epoint2_copy'
p2085
aS'_epoint2_negate'
p2086
atp2087
a(L1581477398L
L0L
(lp2088
(lp2089
tp2090
a(L2442829910L
L3438772250L
(lp2091
(lp2092
S'_ecurve2_add'
p2093
atp2094
a(L875768618L
L0L
(lp2095
(lp2096
tp2097
a(L259800992L
L0L
(lp2098
(lp2099
tp2100
a(L2455376166L
L449713974L
(lp2101
(lp2102
S'_epoint2_copy'
p2103
aS'_epoint2_copy'
p2104
aS'_ecurve2_double'
p2105
atp2106
a(L756951001L
L1354249480L
(lp2107
(lp2108
S'_epoint2_copy'
p2109
aS'_ecurve2_add'
p2110
atp2111
a(L3941474958L
L3438772250L
(lp2112
(lp2113
S'_ecurve2_add'
p2114
atp2115
atp2116
sL2560L
(S'_ecurve2_double'
p2117
(lp2118
(L1467871057L
L0L
(lp2119
(lp2120
tp2121
a(L1258102554L
L1650168448L
(lp2122
(lp2123
tp2124
a(L3705841476L
L0L
(lp2125
(lp2126
tp2127
a(L2624522150L
L2170674802L
(lp2128
(lp2129
S'_modsquare2'
p2130
aS'_incr2'
p2131
aS'_modsquare2'
p2132
aS'_modsquare2'
p2133
aS'_modsquare2'
p2134
aS'_add2'
p2135
aS'_incr2'
p2136
atp2137
a(L1315197181L
L3438772250L
(lp2138
(lp2139
S'_size'
p2140
atp2141
a(L706032891L
L3438772250L
(lp2142
(lp2143
S'_epoint2_set'
p2144
atp2145
a(L2854306523L
L513803401L
(lp2146
L1073741824L
a(lp2147
S'_inverse2'
p2148
aS'_modmult2'
p2149
aS'_add2'
p2150
aS'_modsquare2'
p2151
aS'_add2'
p2152
atp2153
a(L2404911188L
L3438772250L
(lp2154
(lp2155
S'_add2'
p2156
atp2157
a(L603418061L
L3438772250L
(lp2158
(lp2159
S'_incr2'
p2160
atp2161
a(L2093477939L
L3652417470L
(lp2162
(lp2163
S'_add2'
p2164
aS'_modmult2'
p2165
aS'_copy'
p2166
aS'_add2'
p2167
aS'_add2'
p2168
atp2169
a(L3705841476L
L0L
(lp2170
(lp2171
tp2172
a(L2489093574L
L2337355976L
(lp2173
(lp2174
S'_modsquare2'
p2175
aS'_modsquare2'
p2176
aS'_modsquare2'
p2177
aS'_modsquare2'
p2178
atp2179
a(L3039665754L
L2337355976L
(lp2180
(lp2181
S'_modsquare2'
p2182
aS'_modsquare2'
p2183
aS'_add2'
p2184
aS'_add2'
p2185
atp2186
a(L1193765277L
L1354249480L
(lp2187
(lp2188
S'_add2'
p2189
aS'_incr2'
p2190
atp2191
a(L1315197181L
L3438772250L
(lp2192
(lp2193
S'_size'
p2194
atp2195
a(L706032891L
L3438772250L
(lp2196
(lp2197
S'_epoint2_set'
p2198
atp2199
a(L2429857058L
L1015000508L
(lp2200
(lp2201
S'_modsquare2'
p2202
aS'_add2'
p2203
atp2204
a(L161266966L
L1015000508L
(lp2205
(lp2206
S'_modmult2'
p2207
aS'_modsquare2'
p2208
atp2209
a(L2724487730L
L1015000508L
(lp2210
(lp2211
S'_copy'
p2212
aS'_copy'
p2213
atp2214
a(L3466374950L
L944564210L
(lp2215
(lp2216
S'_modmult2'
p2217
aS'_modsquare2'
p2218
aS'_add2'
p2219
atp2220
a(L2770121976L
L0L
(lp2221
(lp2222
tp2223
a(L3729990970L
L3667354999L
(lp2224
L1073741824L
a(lp2225
tp2226
a(L3302678728L
L3438772250L
(lp2227
(lp2228
S'_copy'
p2229
atp2230
a(L815281081L
L3438772250L
(lp2231
(lp2232
S'_convert'
p2233
atp2234
a(L414183086L
L1354249480L
(lp2235
(lp2236
S'_modmult2'
p2237
aS'_add2'
p2238
atp2239
a(L1114890501L
L3438772250L
(lp2240
(lp2241
S'_add2'
p2242
atp2243
a(L3650218625L
L3652417470L
(lp2244
(lp2245
S'_add2'
p2246
aS'_modmult2'
p2247
aS'_modsquare2'
p2248
aS'_modmult2'
p2249
aS'_add2'
p2250
atp2251
a(L1356022597L
L0L
(lp2252
(lp2253
tp2254
atp2255
sL15596L
(S'_epoint_init'
p2256
(lp2257
(L425776429L
L0L
(lp2258
(lp2259
tp2260
atp2261
sL3664L
(S'_epoint2_copy'
p2262
(lp2263
(L339303340L
L0L
(lp2264
(lp2265
tp2266
a(L3922857100L
L1354249480L
(lp2267
(lp2268
S'_copy'
p2269
aS'_copy'
p2270
atp2271
a(L533048777L
L3438772250L
(lp2272
(lp2273
S'_copy'
p2274
atp2275
a(L3593239727L
L0L
(lp2276
(lp2277
tp2278
a(L2222856904L
L0L
(lp2279
(lp2280
tp2281
atp2282
sL15588L
(S'_mr_berror'
p2283
(lp2284
(L425776429L
L0L
(lp2285
(lp2286
tp2287
atp2288
sL15452L
(S'_size'
p2289
(lp2290
(L425776429L
L0L
(lp2291
(lp2292
tp2293
atp2294
sL15552L
(S'_epoint_init_mem'
p2295
(lp2296
(L425776429L
L0L
(lp2297
(lp2298
tp2299
atp2300
sL12048L
(S'_itnaf'
p2301
(lp2302
(L3955823998L
L0L
(lp2303
(lp2304
tp2305
a(L215713123L
L0L
(lp2306
(lp2307
tp2308
a(L2417360738L
L0L
(lp2309
(lp2310
tp2311
a(L1247922638L
L3991344600L
(lp2312
L2147483649L
a(lp2313
tp2314
a(L4152316397L
L1504367734L
(lp2315
L4294967294L
a(lp2316
tp2317
a(L653184198L
L0L
(lp2318
(lp2319
tp2320
a(L1529557604L
L3990344595L
(lp2321
L2147483651L
a(lp2322
tp2323
a(L4244734442L
L1504367728L
(lp2324
L4294967292L
a(lp2325
tp2326
a(L1842513997L
L0L
(lp2327
(lp2328
tp2329
a(L1559014518L
L0L
(lp2330
(lp2331
tp2332
a(L788058486L
L0L
(lp2333
(lp2334
tp2335
a(L4272221078L
L0L
(lp2336
(lp2337
tp2338
a(L1332381509L
L0L
(lp2339
(lp2340
tp2341
a(L2881612061L
L0L
(lp2342
(lp2343
tp2344
a(L1750240064L
L0L
(lp2345
(lp2346
tp2347
atp2348
sL480L
(S'_epoint2_set'
p2349
(lp2350
(L378685210L
L1650168448L
(lp2351
(lp2352
tp2353
a(L3441517590L
L0L
(lp2354
(lp2355
tp2356
a(L1127135805L
L1650168448L
(lp2357
(lp2358
tp2359
a(L2127877672L
L1650168448L
(lp2360
(lp2361
tp2362
a(L520110351L
L1912178190L
(lp2363
(lp2364
S'_mr_track'
p2365
atp2366
a(L3562449329L
L0L
(lp2367
(lp2368
tp2369
a(L1075495718L
L0L
(lp2370
(lp2371
tp2372
a(L2480972791L
L0L
(lp2373
(lp2374
tp2375
a(L3667048545L
L91788322L
(lp2376
(lp2377
S'_copy'
p2378
aS'_modsquare2'
p2379
aS'_modmult2'
p2380
aS'_add2'
p2381
aS'_incr2'
p2382
atp2383
a(L3243467798L
L1811290924L
(lp2384
(lp2385
S'_copy'
p2386
aS'_modsquare2'
p2387
aS'_add2'
p2388
aS'_mr_compare'
p2389
atp2390
a(L3167607065L
L0L
(lp2391
(lp2392
tp2393
a(L3677587237L
L3606524018L
(lp2394
(lp2395
S'_quad2'
p2396
aS'_parity2'
p2397
aS'_incr2'
p2398
atp2399
a(L105093272L
L3146202313L
(lp2400
L1073741824L
a(lp2401
S'_copy'
p2402
aS'_modsquare2'
p2403
aS'_modmult2'
p2404
atp2405
a(L2922140407L
L3438772250L
(lp2406
(lp2407
S'_copy'
p2408
atp2409
a(L790932246L
L3438772250L
(lp2410
(lp2411
S'_convert'
p2412
atp2413
a(L1717816189L
L1994130091L
(lp2414
L1073741824L
a(lp2415
S'_modmult2'
p2416
aS'_add2'
p2417
atp2418
a(L2869249961L
L3438772250L
(lp2419
(lp2420
S'_add2'
p2421
atp2422
a(L2745337684L
L3438772250L
(lp2423
(lp2424
S'_incr2'
p2425
atp2426
a(L2349965615L
L0L
(lp2427
(lp2428
tp2429
a(L2963318938L
L91788322L
(lp2430
(lp2431
S'_copy'
p2432
aS'_modsquare2'
p2433
aS'_modmult2'
p2434
aS'_add2'
p2435
aS'_mr_compare'
p2436
atp2437
a(L3167607065L
L0L
(lp2438
(lp2439
tp2440
a(L945885657L
L3438772250L
(lp2441
(lp2442
S'_size'
p2443
atp2444
a(L1399335881L
L1150749815L
(lp2445
L1073741824L
a(lp2446
tp2447
a(L2887861489L
L3438772250L
(lp2448
(lp2449
S'_copy'
p2450
atp2451
a(L790932246L
L3438772250L
(lp2452
(lp2453
S'_convert'
p2454
atp2455
a(L2958704421L
L434665910L
(lp2456
(lp2457
S'_sqroot2'
p2458
atp2459
a(L3891971649L
L3354477492L
(lp2460
(lp2461
S'_inverse2'
p2462
aS'_modmult2'
p2463
aS'_quad2'
p2464
aS'_parity2'
p2465
aS'_incr2'
p2466
aS'_modmult2'
p2467
atp2468
a(L615954924L
L0L
(lp2469
(lp2470
tp2471
a(L3167607065L
L0L
(lp2472
(lp2473
tp2474
a(L1181925555L
L1650168448L
(lp2475
(lp2476
tp2477
a(L2644336034L
L1354249480L
(lp2478
(lp2479
S'_convert'
p2480
aS'_convert'
p2481
atp2482
a(L622270575L
L1650168448L
(lp2483
(lp2484
tp2485
atp2486
sL7376L
(S'_ecurve2_sub'
p2487
(lp2488
(L3861406372L
L1650168448L
(lp2489
(lp2490
tp2491
a(L2110596432L
L0L
(lp2492
(lp2493
tp2494
a(L1127135805L
L1650168448L
(lp2495
(lp2496
tp2497
a(L1376021666L
L1650168448L
(lp2498
(lp2499
tp2500
a(L520110351L
L1912178190L
(lp2501
(lp2502
S'_mr_track'
p2503
atp2504
a(L2932620734L
L0L
(lp2505
(lp2506
tp2507
a(L216187096L
L1912178190L
(lp2508
(lp2509
S'_epoint2_set'
p2510
atp2511
a(L1901318341L
L0L
(lp2512
(lp2513
tp2514
a(L69924786L
L0L
(lp2515
(lp2516
tp2517
a(L453046935L
L1060385270L
(lp2518
(lp2519
S'_epoint2_negate'
p2520
aS'_ecurve2_add'
p2521
aS'_epoint2_negate'
p2522
atp2523
atp2524
sL15460L
(S'_inverse2'
p2525
(lp2526
(L425776429L
L0L
(lp2527
(lp2528
tp2529
atp2530
sL15580L
(S'_remain'
p2531
(lp2532
(L425776429L
L0L
(lp2533
(lp2534
tp2535
atp2536
sL15464L
(S'_sqroot2'
p2537
(lp2538
(L425776429L
L0L
(lp2539
(lp2540
tp2541
atp2542
sL15612L
(S'_init_point_from_rom'
p2543
(lp2544
(L425776429L
L0L
(lp2545
(lp2546
tp2547
atp2548
sL15488L
(S'_add2'
p2549
(lp2550
(L425776429L
L0L
(lp2551
(lp2552
tp2553
atp2554
sL2224L
(S'_epoint2_get'
p2555
(lp2556
(L1099480705L
L0L
(lp2557
(lp2558
tp2559
a(L2844456315L
L1354249480L
(lp2560
(lp2561
S'_zero'
p2562
aS'_zero'
p2563
atp2564
a(L489289533L
L1650168448L
(lp2565
(lp2566
tp2567
a(L2110596432L
L0L
(lp2568
(lp2569
tp2570
a(L3309230818L
L1650168448L
(lp2571
(lp2572
tp2573
a(L3319550519L
L1650168448L
(lp2574
(lp2575
tp2576
a(L1868153140L
L3438772250L
(lp2577
(lp2578
S'_mr_track'
p2579
atp2580
a(L3719407L
L2332948430L
(lp2581
(lp2582
S'_epoint2_norm'
p2583
aS'_copy'
p2584
aS'_copy'
p2585
atp2586
a(L2996567412L
L434665910L
(lp2587
(lp2588
S'_copy'
p2589
atp2590
a(L2418446539L
L1912178190L
(lp2591
(lp2592
S'_size'
p2593
atp2594
a(L69924786L
L0L
(lp2595
(lp2596
tp2597
a(L1814809575L
L0L
(lp2598
(lp2599
tp2600
a(L164043314L
L1912178190L
(lp2601
(lp2602
S'_parity2'
p2603
atp2604
a(L3011017553L
L1997743146L
(lp2605
(lp2606
S'_inverse2'
p2607
aS'_modmult2'
p2608
aS'_parity2'
p2609
atp2610
atp2611
sL15468L
(S'_convert'
p2612
(lp2613
(L425776429L
L0L
(lp2614
(lp2615
tp2616
atp2617
sL15616L
(S'_recode'
p2618
(lp2619
(L425776429L
L0L
(lp2620
(lp2621
tp2622
atp2623
sL1904L
(S'_epoint2_getxyz'
p2624
(lp2625
(L604294577L
L434665910L
(lp2626
(lp2627
S'_convert'
p2628
atp2629
a(L4004335759L
L1650168448L
(lp2630
(lp2631
tp2632
a(L2417360738L
L0L
(lp2633
(lp2634
tp2635
a(L3826236372L
L3438772250L
(lp2636
(lp2637
S'_zero'
p2638
atp2639
a(L615954924L
L0L
(lp2640
(lp2641
tp2642
a(L2568247859L
L3438772250L
(lp2643
(lp2644
S'_zero'
p2645
atp2646
a(L3530758775L
L1650168448L
(lp2647
(lp2648
tp2649
a(L2417360738L
L0L
(lp2650
(lp2651
tp2652
a(L930900805L
L3438772250L
(lp2653
(lp2654
S'_copy'
p2655
atp2656
a(L615954924L
L0L
(lp2657
(lp2658
tp2659
a(L493723753L
L434665910L
(lp2660
(lp2661
S'_copy'
p2662
atp2663
a(L2900321831L
L0L
(lp2664
(lp2665
tp2666
a(L4212840789L
L3438772250L
(lp2667
(lp2668
S'_zero'
p2669
atp2670
a(L1854059054L
L0L
(lp2671
(lp2672
tp2673
a(L288651334L
L3438772250L
(lp2674
(lp2675
S'_copy'
p2676
atp2677
a(L975703434L
L0L
(lp2678
(lp2679
tp2680
a(L886847740L
L3438772250L
(lp2681
(lp2682
S'_copy'
p2683
atp2684
a(L1453497711L
L1650168448L
(lp2685
(lp2686
tp2687
a(L2417360738L
L0L
(lp2688
(lp2689
tp2690
a(L3775683229L
L1912178190L
(lp2691
(lp2692
S'_zero'
p2693
atp2694
a(L1100521186L
L0L
(lp2695
(lp2696
tp2697
a(L2417360738L
L0L
(lp2698
(lp2699
tp2700
a(L254323031L
L0L
(lp2701
(lp2702
tp2703
a(L2113074169L
L3438772250L
(lp2704
(lp2705
S'_copy'
p2706
atp2707
a(L3180958072L
L3438772250L
(lp2708
(lp2709
S'_copy'
p2710
atp2711
a(L2222856904L
L0L
(lp2712
(lp2713
tp2714
atp2715
sL10608L
(S'_frobenius'
p2716
(lp2717
(L1467871057L
L0L
(lp2718
(lp2719
tp2720
a(L324288360L
L3504974572L
(lp2721
(lp2722
S'_modsquare2'
p2723
aS'_modsquare2'
p2724
atp2725
a(L3412546143L
L0L
(lp2726
(lp2727
tp2728
a(L3153810243L
L3438772250L
(lp2729
(lp2730
S'_modsquare2'
p2731
atp2732
a(L1356022597L
L0L
(lp2733
(lp2734
tp2735
atp2736
sL15476L
(S'_quad2'
p2737
(lp2738
(L425776429L
L0L
(lp2739
(lp2740
tp2741
atp2742
sL15572L
(S'_decr'
p2743
(lp2744
(L425776429L
L0L
(lp2745
(lp2746
tp2747
atp2748
sL15480L
(S'_mr_compare'
p2749
(lp2750
(L425776429L
L0L
(lp2751
(lp2752
tp2753
atp2754
sL15444L
(S'_prepare_basis'
p2755
(lp2756
(L425776429L
L0L
(lp2757
(lp2758
tp2759
atp2760
sL15484L
(S'_incr2'
p2761
(lp2762
(L425776429L
L0L
(lp2763
(lp2764
tp2765
atp2766
sL15608L
(S'_mirkill'
p2767
(lp2768
(L425776429L
L0L
(lp2769
(lp2770
tp2771
atp2772
ssS'fuzzydups'
p2773
c__builtin__
set
p2774
((lp2775
tp2776
Rp2777
sS'stringdups'
p2778
g2774
((lp2779
tp2780
Rp2781
sS'immediates'
p2782
(dp2783
L2147483649L
L12048L
sL2147483651L
L12048L
sL4294967292L
L12048L
ssS'formaldups'
p2784
g2774
((lp2785
tp2786
Rp2787
sS'immediatedups'
p2788
g2774
((lp2789
tp2790
Rp2791
sS'fuzzy'
p2792
(dp2793
L3824258309L
L14032L
sL652702343L
L2560L
sL436893706L
L3744L
sL3825022604L
L7568L
sL3886245773L
L7376L
sL2536117009L
L4192L
sL3391766427L
L3968L
sL2746985884L
L480L
sL1559766440L
L1904L
sL2752101033L
L14864L
sL4203816753L
L12736L
sL4222023861L
L14816L
sL384948575L
L9392L
sL2431250314L
L10608L
sL709712702L
L10688L
sL3869239872L
L3664L
sL3439508171L
L1600L
sL3877660239L
L12208L
sL3118675800L
L12048L
sL1485327455L
L11216L
sL2195070307L
L7136L
sL991003753L
L8944L
sL1114732660L
L2224L
sL3411642357L
L0L
sL4264850678L
L11120L
ssS'strings'
p2794
(dp2795
sS'formal'
p2796
(dp2797
L1192433027L
L10688L
sL1342096005L
L3968L
sL2743204242L
L7376L
sL2528597654L
L480L
sL2458494365L
L2560L
sL4210362402L
L10608L
sL2960984356L
L14816L
sL1623226055L
L3744L
sL3184566450L
L1600L
sL3546806750L
L11216L
sL624625341L
L8944L
sL2307983303L
L3664L
sL3794020812L
L7136L
sL1754461517L
L7568L
sL3919603044L
L14032L
sL1693377242L
L2224L
sL3530862428L
L14864L
sL366760925L
L4192L
sL367953374L
L9392L
sL3773904996L
L11120L
sL2429726994L
L0L
sL1346485437L
L12736L
sL816952176L
L12048L
sL3945576956L
L12208L
sL487396990L
L1904L
ssb.