ccopy_reg
_reconstructor
p0
(c__main__
RizzoSignatures
p1
c__builtin__
object
p2
Ntp3
Rp4
(dp5
S'functions'
p6
(dp7
L0L
(S'_mr_fft_init'
p8
(lp9
(L1435579142L
L656749438L
(lp10
(lp11
S'_multiply'
p12
aS'_premult'
p13
aS'_mr_shiftbits'
p14
atp15
a(L3312548925L
L0L
(lp16
(lp17
tp18
a(L2291184987L
L3201111617L
(lp19
L4294967295L
a(lp20
S'_mr_shiftbits'
p21
atp22
a(L4277161675L
L3438772250L
(lp23
(lp24
S'_size'
p25
atp26
a(L2023376356L
L0L
(lp27
(lp28
tp29
a(L439052793L
L3438772250L
(lp30
(lp31
S'_spmd'
p32
atp33
a(L6542927L
L1015000508L
(lp34
(lp35
S'_mr_sdiv'
p36
aS'_size'
p37
atp38
a(L1897638918L
L0L
(lp39
(lp40
tp41
a(L3891323280L
L2614424152L
(lp42
(lp43
tp44
a(L908972829L
L0L
(lp45
(lp46
tp47
a(L3596269173L
L0L
(lp48
(lp49
tp50
a(L1999223109L
L1611101948L
(lp51
(lp52
S'_fft_reset'
p53
aS'_mr_alloc'
p54
aS'_mr_alloc'
p55
aS'_mr_alloc'
p56
aS'_mr_alloc'
p57
aS'_mr_alloc'
p58
aS'_mr_alloc'
p59
aS'_mr_alloc'
p60
aS'_mr_alloc'
p61
aS'_mr_shiftbits'
p62
atp63
a(L3232856567L
L0L
(lp64
(lp65
tp66
a(L3141258318L
L3201111617L
(lp67
L4294967295L
a(lp68
S'_mr_shiftbits'
p69
atp70
a(L980433066L
L0L
(lp71
(lp72
tp73
a(L3249209674L
L0L
(lp74
(lp75
tp76
a(L3891816432L
L0L
(lp77
(lp78
tp79
a(L2836989843L
L3551412508L
(lp80
(lp81
S'_mr_alloc'
p82
aS'_mr_alloc'
p83
atp84
a(L1198331937L
L3438772250L
(lp85
(lp86
S'_spmd'
p87
atp88
a(L1051229239L
L0L
(lp89
(lp90
tp91
a(L3434553632L
L0L
(lp92
(lp93
tp94
a(L1116985608L
L3438772250L
(lp95
(lp96
S'_sqrmp'
p97
atp98
a(L582305794L
L1650168448L
(lp99
(lp100
tp101
a(L2020628152L
L4079538650L
(lp102
(lp103
S'_smul'
p104
atp105
a(L813302924L
L609169042L
(lp106
(lp107
S'_invers'
p108
atp109
a(L179779481L
L0L
(lp110
(lp111
tp112
a(L3425635780L
L2614424152L
(lp113
(lp114
tp115
a(L1037693307L
L434665910L
(lp116
(lp117
S'_scrt_init'
p118
atp119
a(L1868153140L
L3438772250L
(lp120
(lp121
S'_fft_reset'
p122
atp123
a(L1765641908L
L0L
(lp124
(lp125
tp126
atp127
sL5376L
(S'_mr_ps_big_mul'
p128
(lp129
(L855289220L
L0L
(lp130
(lp131
tp132
a(L3770638808L
L0L
(lp133
(lp134
tp135
a(L3888443101L
L0L
(lp136
(lp137
tp138
a(L2075168445L
L1015000508L
(lp139
(lp140
S'_zero'
p141
aS'_zero'
p142
atp143
a(L3532648308L
L0L
(lp144
(lp145
tp146
a(L4048371737L
L0L
(lp147
(lp148
tp149
a(L3942249337L
L1015000508L
(lp150
(lp151
S'_absol'
p152
aS'_mr_compare'
p153
atp154
a(L2790788689L
L434665910L
(lp155
(lp156
S'_copy'
p157
atp158
a(L3063294894L
L0L
(lp159
(lp160
tp161
a(L3545594572L
L1015000508L
(lp162
(lp163
S'_absol'
p164
aS'_mr_compare'
p165
atp166
a(L87689949L
L434665910L
(lp167
(lp168
S'_copy'
p169
atp170
a(L3976080006L
L0L
(lp171
(lp172
tp173
a(L3249209674L
L0L
(lp174
(lp175
tp176
a(L312592725L
L0L
(lp177
(lp178
tp179
a(L692208983L
L2347529182L
(lp180
(lp181
S'_premult'
p182
aS'_mr_fft_init'
p183
aS'_convert'
p184
atp185
a(L3249209674L
L0L
(lp186
(lp187
tp188
a(L312592725L
L0L
(lp189
(lp190
tp191
a(L1984442475L
L3438772250L
(lp192
(lp193
S'_mr_pmul'
p194
atp195
a(L4280083624L
L0L
(lp196
(lp197
tp198
a(L1260509187L
L1650168448L
(lp199
(lp200
tp201
a(L1917564455L
L3438772250L
(lp202
(lp203
S'_size'
p204
atp205
a(L2142773586L
L4255254916L
(lp206
(lp207
S'_copy'
p208
aS'_mr_sdiv'
p209
atp210
a(L1514547349L
L4255254916L
(lp211
(lp212
S'_negify'
p213
aS'_mr_sdiv'
p214
atp215
a(L561063747L
L0L
(lp216
(lp217
tp218
a(L3825813165L
L0L
(lp219
(lp220
tp221
a(L366260215L
L1650168448L
(lp222
(lp223
tp224
a(L1301875636L
L434665910L
(lp225
(lp226
S'_mr_dif_fft'
p227
atp228
a(L611034153L
L0L
(lp229
(lp230
tp231
a(L556554161L
L1650168448L
(lp232
(lp233
tp234
a(L1917564455L
L3438772250L
(lp235
(lp236
S'_size'
p237
atp238
a(L1884997311L
L4255254916L
(lp239
(lp240
S'_copy'
p241
aS'_mr_sdiv'
p242
atp243
a(L2005468461L
L4255254916L
(lp244
(lp245
S'_negify'
p246
aS'_mr_sdiv'
p247
atp248
a(L561063747L
L0L
(lp249
(lp250
tp251
a(L477863324L
L0L
(lp252
(lp253
tp254
a(L199488025L
L0L
(lp255
(lp256
tp257
a(L3697164209L
L1650168448L
(lp258
(lp259
tp260
a(L4032991816L
L434665910L
(lp261
(lp262
S'_mr_dif_fft'
p263
atp264
a(L1670075108L
L434665910L
(lp265
(lp266
S'_muldiv'
p267
atp268
a(L1170665151L
L4079538650L
(lp269
(lp270
S'_mr_dit_fft'
p271
atp272
a(L3797059525L
L3504974572L
(lp273
(lp274
S'_twop'
p275
aS'_smul'
p276
atp277
a(L3113694826L
L0L
(lp278
(lp279
tp280
a(L869547035L
L1912178190L
(lp281
(lp282
S'_muldiv'
p283
atp284
a(L2990521757L
L0L
(lp285
(lp286
tp287
a(L184779590L
L0L
(lp288
(lp289
tp290
a(L3840545412L
L2941833480L
(lp291
(lp292
S'_decr'
p293
aS'_subdiv'
p294
atp295
a(L385592944L
L0L
(lp296
(lp297
tp298
a(L846687976L
L0L
(lp299
(lp300
tp301
a(L2758672391L
L1650168448L
(lp302
(lp303
tp304
a(L663372435L
L1015000508L
(lp305
(lp306
S'_scrt'
p307
aS'_mr_compare'
p308
atp309
a(L1053087211L
L3872313376L
(lp310
(lp311
S'_subtract'
p312
aS'_negify'
p313
atp314
a(L2140332656L
L0L
(lp315
(lp316
tp317
a(L2518691808L
L0L
(lp318
(lp319
tp320
atp321
sL10756L
(S'_subdiv'
p322
(lp323
(L425776429L
L0L
(lp324
(lp325
tp326
atp327
sL10760L
(S'_decr'
p328
(lp329
(L425776429L
L0L
(lp330
(lp331
tp332
atp333
sL10796L
(S'_mr_berror'
p334
(lp335
(L425776429L
L0L
(lp336
(lp337
tp338
atp339
sL10764L
(S'_negify'
p340
(lp341
(L425776429L
L0L
(lp342
(lp343
tp344
atp345
sL8448L
(S'_fastmultop'
p346
(lp347
(L311036301L
L383001752L
(lp348
(lp349
S'_fft_mult'
p350
aS'_mr_lent'
p351
aS'_mr_shift'
p352
aS'_copy'
p353
atp354
atp355
sL6800L
(S'_mr_poly_mul'
p356
(lp357
(L3571522879L
L0L
(lp358
(lp359
tp360
a(L977998351L
L3438772250L
(lp361
(lp362
S'_mr_poly_sqr'
p363
atp364
a(L1777060381L
L0L
(lp365
(lp366
tp367
a(L3883236065L
L0L
(lp368
(lp369
tp370
a(L1956095383L
L0L
(lp371
(lp372
tp373
a(L2855495715L
L1650168448L
(lp374
(lp375
tp376
a(L2641749350L
L1912178190L
(lp377
(lp378
S'_mr_fft_init'
p379
atp380
a(L3196096076L
L0L
(lp381
(lp382
tp383
a(L4000874349L
L0L
(lp384
(lp385
tp386
a(L3450262684L
L0L
(lp387
(lp388
tp389
a(L2506419388L
L0L
(lp390
(lp391
tp392
a(L1350573060L
L0L
(lp393
(lp394
tp395
a(L1083809410L
L0L
(lp396
(lp397
tp398
a(L3053898538L
L0L
(lp399
(lp400
tp401
a(L767757483L
L1912178190L
(lp402
(lp403
S'_mr_sdiv'
p404
atp405
a(L4293511221L
L1650168448L
(lp406
(lp407
tp408
a(L947087633L
L0L
(lp409
(lp410
tp411
a(L775665959L
L1650168448L
(lp412
(lp413
tp414
a(L2264893200L
L3438772250L
(lp415
(lp416
S'_mr_dif_fft'
p417
atp418
a(L1049452603L
L0L
(lp419
(lp420
tp421
a(L791270462L
L1650168448L
(lp422
(lp423
tp424
a(L1437807368L
L4079538650L
(lp425
(lp426
S'_mr_sdiv'
p427
atp428
a(L2057269629L
L0L
(lp429
(lp430
tp431
a(L1719204766L
L0L
(lp432
(lp433
tp434
a(L718895319L
L1650168448L
(lp435
(lp436
tp437
a(L923723219L
L434665910L
(lp438
(lp439
S'_mr_dif_fft'
p440
atp441
a(L3246161154L
L434665910L
(lp442
(lp443
S'_muldiv'
p444
atp445
a(L836869650L
L4079538650L
(lp446
(lp447
S'_mr_dit_fft'
p448
atp449
a(L1004741138L
L3504974572L
(lp450
(lp451
S'_twop'
p452
aS'_smul'
p453
atp454
a(L1321023173L
L0L
(lp455
(lp456
tp457
a(L3136234992L
L1912178190L
(lp458
(lp459
S'_muldiv'
p460
atp461
a(L385588419L
L0L
(lp462
(lp463
tp464
a(L919599362L
L0L
(lp465
(lp466
tp467
a(L2596243477L
L434665910L
(lp468
(lp469
S'_mr_shift'
p470
atp471
a(L3112392853L
L0L
(lp472
(lp473
tp474
a(L846687976L
L0L
(lp475
(lp476
tp477
a(L2758672391L
L1650168448L
(lp478
(lp479
tp480
a(L2316144935L
L3606524018L
(lp481
(lp482
S'_scrt'
p483
aS'_divide'
p484
aS'_redc'
p485
atp486
a(L4005649263L
L1650168448L
(lp487
(lp488
tp489
atp490
sL4480L
(S'_mr_ps_zzn_mul'
p491
(lp492
(L4163268968L
L0L
(lp493
(lp494
tp495
a(L3883236065L
L0L
(lp496
(lp497
tp498
a(L1854492443L
L0L
(lp499
(lp500
tp501
a(L2855495715L
L1650168448L
(lp502
(lp503
tp504
a(L1309162535L
L1912178190L
(lp505
(lp506
S'_mr_fft_init'
p507
atp508
a(L3479101077L
L0L
(lp509
(lp510
tp511
a(L2136426242L
L0L
(lp512
(lp513
tp514
a(L3450262684L
L0L
(lp515
(lp516
tp517
a(L3949258624L
L0L
(lp518
(lp519
tp520
a(L4187359236L
L0L
(lp521
(lp522
tp523
a(L4105089214L
L0L
(lp524
(lp525
tp526
a(L3053898538L
L0L
(lp527
(lp528
tp529
a(L3502480983L
L1912178190L
(lp530
(lp531
S'_mr_sdiv'
p532
atp533
a(L662728671L
L1650168448L
(lp534
(lp535
tp536
a(L3502258306L
L0L
(lp537
(lp538
tp539
a(L775665959L
L1650168448L
(lp540
(lp541
tp542
a(L3217341787L
L3438772250L
(lp543
(lp544
S'_mr_dif_fft'
p545
atp546
a(L492319966L
L0L
(lp547
(lp548
tp549
a(L791270462L
L1650168448L
(lp550
(lp551
tp552
a(L4021291100L
L4079538650L
(lp553
(lp554
S'_mr_sdiv'
p555
atp556
a(L3501081407L
L0L
(lp557
(lp558
tp559
a(L1565682036L
L0L
(lp560
(lp561
tp562
a(L718895319L
L1650168448L
(lp563
(lp564
tp565
a(L2647923270L
L434665910L
(lp566
(lp567
S'_mr_dif_fft'
p568
atp569
a(L3246161154L
L434665910L
(lp570
(lp571
S'_muldiv'
p572
atp573
a(L367827825L
L4079538650L
(lp574
(lp575
S'_mr_dit_fft'
p576
atp577
a(L1004741138L
L3504974572L
(lp578
(lp579
S'_twop'
p580
aS'_smul'
p581
atp582
a(L3113694826L
L0L
(lp583
(lp584
tp585
a(L3954270121L
L1912178190L
(lp586
(lp587
S'_muldiv'
p588
atp589
a(L1454853136L
L0L
(lp590
(lp591
tp592
a(L349393653L
L0L
(lp593
(lp594
tp595
a(L3753840851L
L434665910L
(lp596
(lp597
S'_mr_shift'
p598
atp599
a(L1967401368L
L0L
(lp600
(lp601
tp602
a(L846687976L
L0L
(lp603
(lp604
tp605
a(L2758672391L
L1650168448L
(lp606
(lp607
tp608
a(L4092995305L
L3606524018L
(lp609
(lp610
S'_scrt'
p611
aS'_divide'
p612
aS'_redc'
p613
atp614
a(L2999616458L
L1650168448L
(lp615
(lp616
tp617
a(L3681156085L
L1650168448L
(lp618
(lp619
tp620
atp621
sL10772L
(S'_convert'
p622
(lp623
(L425776429L
L0L
(lp624
(lp625
tp626
atp627
sL10720L
(S'_divide'
p628
(lp629
(L425776429L
L0L
(lp630
(lp631
tp632
atp633
sL10784L
(S'_mr_lent'
p634
(lp635
(L425776429L
L0L
(lp636
(lp637
tp638
atp639
sL10776L
(S'_mr_compare'
p640
(lp641
(L425776429L
L0L
(lp642
(lp643
tp644
atp645
sL3760L
(S'_mr_polymod_set'
p646
(lp647
(L89576762L
L0L
(lp648
(lp649
tp650
a(L620932001L
L0L
(lp651
(lp652
tp653
a(L1564826920L
L0L
(lp654
(lp655
tp656
a(L3286614206L
L1650168448L
(lp657
(lp658
tp659
a(L3241127079L
L0L
(lp660
(lp661
tp662
a(L794615938L
L3551412508L
(lp663
(lp664
S'_mr_free'
p665
aS'_mr_free'
p666
atp667
a(L1277217732L
L3551412508L
(lp668
(lp669
S'_mr_free'
p670
aS'_mr_free'
p671
atp672
a(L3243846314L
L0L
(lp673
(lp674
tp675
a(L2881873496L
L1912178190L
(lp676
(lp677
S'_mr_fft_init'
p678
atp679
a(L2193207140L
L0L
(lp680
(lp681
tp682
a(L2348392924L
L1190238782L
(lp683
(lp684
S'_mr_alloc'
p685
aS'_mr_alloc'
p686
aS'_mr_alloc'
p687
atp688
a(L2052527663L
L0L
(lp689
(lp690
tp691
a(L1172791756L
L3438772250L
(lp692
(lp693
S'_mirvar'
p694
atp695
a(L3467560518L
L3438772250L
(lp696
(lp697
S'_copy'
p698
atp699
a(L3714417968L
L0L
(lp700
(lp701
tp702
a(L1196999517L
L0L
(lp703
(lp704
tp705
a(L2091357664L
L3438772250L
(lp706
(lp707
S'_modxn_1'
p708
atp709
a(L2322369682L
L0L
(lp710
(lp711
tp712
a(L477863324L
L0L
(lp713
(lp714
tp715
a(L3837558867L
L3152541604L
(lp716
(lp717
S'_mr_alloc'
p718
aS'_mr_alloc'
p719
atp720
a(L1421152821L
L0L
(lp721
(lp722
tp723
a(L973209303L
L0L
(lp724
(lp725
tp726
a(L707230831L
L1912178190L
(lp727
(lp728
S'_mr_sdiv'
p729
atp730
a(L1032945333L
L1650168448L
(lp731
(lp732
tp733
a(L3675916914L
L3438772250L
(lp734
(lp735
S'_mr_dif_fft'
p736
atp737
a(L145558913L
L4079538650L
(lp738
(lp739
S'_mr_sdiv'
p740
atp741
a(L381960247L
L434665910L
(lp742
(lp743
S'_mr_dif_fft'
p744
atp745
a(L8512596L
L0L
(lp746
(lp747
tp748
a(L3226881565L
L0L
(lp749
(lp750
tp751
a(L2453655335L
L3438772250L
(lp752
(lp753
S'_mr_free'
p754
atp755
a(L38898229L
L3438772250L
(lp756
(lp757
S'_mr_free'
p758
atp759
atp760
sL10780L
(S'_absol'
p761
(lp762
(L425776429L
L0L
(lp763
(lp764
tp765
atp766
sL928L
(S'_fft_reset'
p767
(lp768
(L3716449031L
L1650168448L
(lp769
(lp770
tp771
a(L3903631640L
L0L
(lp772
(lp773
tp774
a(L794615938L
L3551412508L
(lp775
(lp776
S'_mr_free'
p777
aS'_mr_free'
p778
atp779
a(L458354433L
L3152541604L
(lp780
(lp781
S'_mr_free'
p782
aS'_mr_free'
p783
atp784
a(L753484283L
L0L
(lp785
(lp786
tp787
a(L3903631640L
L0L
(lp788
(lp789
tp790
a(L2277624820L
L3551412508L
(lp791
(lp792
S'_mr_free'
p793
aS'_mr_free'
p794
atp795
a(L543845364L
L643213612L
(lp796
(lp797
S'_mr_free'
p798
aS'_mr_free'
p799
aS'_mr_free'
p800
aS'_mr_free'
p801
aS'_mr_free'
p802
aS'_mr_free'
p803
aS'_mr_free'
p804
aS'_mr_free'
p805
atp806
a(L1111819299L
L0L
(lp807
(lp808
tp809
a(L1328985811L
L3438772250L
(lp810
(lp811
S'_scrt_end'
p812
atp813
a(L425776429L
L0L
(lp814
(lp815
tp816
atp817
sL2224L
(S'_mr_poly_rem'
p818
(lp819
(L3104293747L
L1650168448L
(lp820
(lp821
tp822
a(L1674793747L
L0L
(lp823
(lp824
tp825
a(L2621218980L
L0L
(lp826
(lp827
tp828
a(L1884742L
L0L
(lp829
(lp830
tp831
a(L3347296091L
L0L
(lp832
(lp833
tp834
a(L903803577L
L0L
(lp835
(lp836
tp837
a(L3249209674L
L0L
(lp838
(lp839
tp840
a(L3283067332L
L1650168448L
(lp841
(lp842
tp843
a(L2034549760L
L0L
(lp844
(lp845
tp846
a(L956381229L
L0L
(lp847
(lp848
tp849
a(L3486985202L
L4079538650L
(lp850
(lp851
S'_mr_sdiv'
p852
atp853
a(L2106288693L
L0L
(lp854
(lp855
tp856
a(L3774727860L
L0L
(lp857
(lp858
tp859
a(L3324433882L
L1650168448L
(lp860
(lp861
tp862
a(L3306669110L
L434665910L
(lp863
(lp864
S'_mr_dif_fft'
p865
atp866
a(L1159252948L
L434665910L
(lp867
(lp868
S'_muldiv'
p869
atp870
a(L2841896302L
L4079538650L
(lp871
(lp872
S'_mr_dit_fft'
p873
atp874
a(L16590376L
L1354249480L
(lp875
(lp876
S'_twop'
p877
aS'_smul'
p878
atp879
a(L2629142923L
L0L
(lp880
(lp881
tp882
a(L1812545777L
L0L
(lp883
(lp884
tp885
a(L3456713624L
L434665910L
(lp886
(lp887
S'_muldiv'
p888
atp889
a(L1322137917L
L0L
(lp890
(lp891
tp892
a(L4070222800L
L1650168448L
(lp893
(lp894
tp895
a(L3041538602L
L434665910L
(lp896
(lp897
S'_mr_shift'
p898
atp899
a(L1498851897L
L0L
(lp900
(lp901
tp902
a(L2295305490L
L0L
(lp903
(lp904
tp905
a(L1153161183L
L1650168448L
(lp906
(lp907
tp908
a(L1602937830L
L3606524018L
(lp909
(lp910
S'_scrt'
p911
aS'_divide'
p912
aS'_redc'
p913
atp914
a(L2597781398L
L0L
(lp915
(lp916
tp917
a(L2417489867L
L1650168448L
(lp918
(lp919
tp920
a(L526053238L
L1650168448L
(lp921
(lp922
tp923
a(L74454052L
L4079538650L
(lp924
(lp925
S'_mr_sdiv'
p926
atp927
a(L3277358158L
L0L
(lp928
(lp929
tp930
a(L311413553L
L1650168448L
(lp931
(lp932
tp933
a(L3545201537L
L434665910L
(lp934
(lp935
S'_mr_dif_fft'
p936
atp937
a(L2977194391L
L434665910L
(lp938
(lp939
S'_muldiv'
p940
atp941
a(L396187844L
L4079538650L
(lp942
(lp943
S'_mr_dit_fft'
p944
atp945
a(L3564850681L
L1354249480L
(lp946
(lp947
S'_twop'
p948
aS'_smul'
p949
atp950
a(L444904511L
L0L
(lp951
(lp952
tp953
a(L2317371501L
L434665910L
(lp954
(lp955
S'_muldiv'
p956
atp957
a(L1322137917L
L0L
(lp958
(lp959
tp960
a(L767101947L
L0L
(lp961
(lp962
tp963
a(L666008965L
L3208588708L
(lp964
(lp965
S'_modxn_1'
p966
aS'_mr_shift'
p967
atp968
a(L1697755507L
L0L
(lp969
(lp970
tp971
a(L2295305490L
L0L
(lp972
(lp973
tp974
a(L2607152560L
L1650168448L
(lp975
(lp976
tp977
a(L2914545718L
L3232908900L
(lp978
(lp979
S'_scrt'
p980
aS'_divide'
p981
aS'_redc'
p982
aS'_nres_modsub'
p983
atp984
a(L281266662L
L1650168448L
(lp985
(lp986
tp987
atp988
sL10660L
(S'_invers'
p989
(lp990
(L425776429L
L0L
(lp991
(lp992
tp993
atp994
sL10664L
(S'_smul'
p995
(lp996
(L425776429L
L0L
(lp997
(lp998
tp999
atp1000
sL10668L
(S'_sqrmp'
p1001
(lp1002
(L425776429L
L0L
(lp1003
(lp1004
tp1005
atp1006
sL10288L
(S'_init_it'
p1007
(lp1008
(L2856304283L
L4218281192L
(lp1009
(lp1010
S'_zero'
p1011
aS'_mr_fft_init'
p1012
atp1013
a(L133851771L
L0L
(lp1014
(lp1015
tp1016
a(L4179603177L
L3254552482L
(lp1017
(lp1018
S'_invers'
p1019
aS'_invers'
p1020
aS'_invers'
p1021
atp1022
a(L1560820730L
L609169042L
(lp1023
(lp1024
S'_muldvd'
p1025
atp1026
a(L1638821073L
L609169042L
(lp1027
(lp1028
S'_muldiv'
p1029
atp1030
atp1031
sL10676L
(S'_mr_sdiv'
p1032
(lp1033
(L425776429L
L0L
(lp1034
(lp1035
tp1036
atp1037
sL7712L
(S'_mr_poly_sqr'
p1038
(lp1039
(L1638423945L
L0L
(lp1040
(lp1041
tp1042
a(L3883236065L
L0L
(lp1043
(lp1044
tp1045
a(L1956095383L
L0L
(lp1046
(lp1047
tp1048
a(L2855495715L
L1650168448L
(lp1049
(lp1050
tp1051
a(L2641749350L
L1912178190L
(lp1052
(lp1053
S'_mr_fft_init'
p1054
atp1055
a(L3196096076L
L0L
(lp1056
(lp1057
tp1058
a(L2781446310L
L0L
(lp1059
(lp1060
tp1061
a(L3249209674L
L0L
(lp1062
(lp1063
tp1064
a(L2506419388L
L0L
(lp1065
(lp1066
tp1067
a(L2143772327L
L0L
(lp1068
(lp1069
tp1070
a(L3662132407L
L0L
(lp1071
(lp1072
tp1073
a(L1012447223L
L0L
(lp1074
(lp1075
tp1076
a(L1595801396L
L1912178190L
(lp1077
(lp1078
S'_mr_sdiv'
p1079
atp1080
a(L4015577933L
L1650168448L
(lp1081
(lp1082
tp1083
a(L947087633L
L0L
(lp1084
(lp1085
tp1086
a(L434314691L
L1650168448L
(lp1087
(lp1088
tp1089
a(L809999595L
L3438772250L
(lp1090
(lp1091
S'_mr_dif_fft'
p1092
atp1093
a(L1776175341L
L434665910L
(lp1094
(lp1095
S'_muldiv'
p1096
atp1097
a(L276379832L
L4079538650L
(lp1098
(lp1099
S'_mr_dit_fft'
p1100
atp1101
a(L1004741138L
L3504974572L
(lp1102
(lp1103
S'_twop'
p1104
aS'_smul'
p1105
atp1106
a(L2638936339L
L0L
(lp1107
(lp1108
tp1109
a(L1320776871L
L1912178190L
(lp1110
(lp1111
S'_muldiv'
p1112
atp1113
a(L2982081730L
L0L
(lp1114
(lp1115
tp1116
a(L919599362L
L0L
(lp1117
(lp1118
tp1119
a(L2596243477L
L434665910L
(lp1120
(lp1121
S'_mr_shift'
p1122
atp1123
a(L1691279725L
L0L
(lp1124
(lp1125
tp1126
a(L846687976L
L0L
(lp1127
(lp1128
tp1129
a(L2758672391L
L1650168448L
(lp1130
(lp1131
tp1132
a(L2316144935L
L3606524018L
(lp1133
(lp1134
S'_scrt'
p1135
aS'_divide'
p1136
aS'_redc'
p1137
atp1138
a(L2109072415L
L1650168448L
(lp1139
(lp1140
tp1141
a(L784548664L
L1650168448L
(lp1142
(lp1143
tp1144
atp1145
sL10680L
(S'_spmd'
p1146
(lp1147
(L425776429L
L0L
(lp1148
(lp1149
tp1150
atp1151
sL10804L
(S'_mr_track'
p1152
(lp1153
(L425776429L
L0L
(lp1154
(lp1155
tp1156
atp1157
sL10684L
(S'_size'
p1158
(lp1159
(L425776429L
L0L
(lp1160
(lp1161
tp1162
atp1163
sL1344L
(S'_mr_dif_fft'
p1164
(lp1165
(L662075792L
L432033468L
(lp1166
(lp1167
tp1168
a(L3865467461L
L0L
(lp1169
(lp1170
tp1171
a(L3586741960L
L0L
(lp1172
(lp1173
tp1174
a(L2817505593L
L0L
(lp1175
(lp1176
tp1177
a(L712729004L
L0L
(lp1178
(lp1179
tp1180
a(L459309256L
L0L
(lp1181
(lp1182
tp1183
a(L2009772920L
L0L
(lp1184
(lp1185
tp1186
a(L2356135102L
L0L
(lp1187
(lp1188
tp1189
a(L1781468982L
L0L
(lp1190
(lp1191
tp1192
a(L1433329341L
L0L
(lp1193
(lp1194
tp1195
a(L3283726425L
L0L
(lp1196
(lp1197
tp1198
a(L984864848L
L0L
(lp1199
(lp1200
tp1201
a(L1918363573L
L0L
(lp1202
(lp1203
tp1204
a(L139293029L
L0L
(lp1205
(lp1206
tp1207
a(L1453823423L
L0L
(lp1208
(lp1209
tp1210
a(L748545990L
L0L
(lp1211
(lp1212
tp1213
a(L2085084243L
L0L
(lp1214
(lp1215
tp1216
a(L1907887433L
L0L
(lp1217
(lp1218
tp1219
a(L1975576589L
L0L
(lp1220
(lp1221
tp1222
a(L484884206L
L0L
(lp1223
(lp1224
tp1225
a(L3249209674L
L0L
(lp1226
(lp1227
tp1228
a(L328372734L
L0L
(lp1229
(lp1230
tp1231
atp1232
sL10656L
(S'_scrt_init'
p1233
(lp1234
(L425776429L
L0L
(lp1235
(lp1236
tp1237
atp1238
sL10692L
(S'_premult'
p1239
(lp1240
(L425776429L
L0L
(lp1241
(lp1242
tp1243
atp1244
sL10696L
(S'_multiply'
p1245
(lp1246
(L425776429L
L0L
(lp1247
(lp1248
tp1249
atp1250
sL10704L
(S'_scrt_end'
p1251
(lp1252
(L425776429L
L0L
(lp1253
(lp1254
tp1255
atp1256
sL8608L
(S'_fft_mult'
p1257
(lp1258
(L2308850081L
L1650168448L
(lp1259
(lp1260
tp1261
a(L2022605117L
L0L
(lp1262
(lp1263
tp1264
a(L1702769477L
L0L
(lp1265
(lp1266
tp1267
a(L3244463293L
L1650168448L
(lp1268
(lp1269
tp1270
a(L2509423163L
L1650168448L
(lp1271
(lp1272
tp1273
a(L1868153140L
L3438772250L
(lp1274
(lp1275
S'_mr_track'
p1276
atp1277
a(L2004978375L
L3438772250L
(lp1278
(lp1279
S'_mr_notint'
p1280
atp1281
a(L4096515518L
L3438772250L
(lp1282
(lp1283
S'_mr_notint'
p1284
atp1285
a(L3670774858L
L1189144197L
(lp1286
L2147483647L
aL2147483647L
aL2147483648L
a(lp1287
tp1288
a(L2176310440L
L0L
(lp1289
(lp1290
tp1291
a(L1999117150L
L1650168448L
(lp1292
(lp1293
tp1294
a(L3554147421L
L0L
(lp1295
(lp1296
tp1297
a(L1848276439L
L0L
(lp1298
(lp1299
tp1300
a(L2923674639L
L0L
(lp1301
(lp1302
tp1303
a(L1144423075L
L0L
(lp1304
(lp1305
tp1306
a(L2310780238L
L0L
(lp1307
(lp1308
tp1309
a(L2004978375L
L3438772250L
(lp1310
(lp1311
S'_init_it'
p1312
atp1313
a(L748846403L
L1912178190L
(lp1314
(lp1315
S'_mr_berror'
p1316
atp1317
a(L1795816891L
L1650168448L
(lp1318
(lp1319
tp1320
a(L2417090340L
L0L
(lp1321
(lp1322
tp1323
a(L4276588226L
L0L
(lp1324
(lp1325
tp1326
a(L2346259314L
L1912178190L
(lp1327
(lp1328
S'_mr_berror'
p1329
atp1330
a(L753485877L
L3438772250L
(lp1331
(lp1332
S'_twop'
p1333
atp1334
a(L1751341965L
L0L
(lp1335
(lp1336
tp1337
a(L54258215L
L1650168448L
(lp1338
(lp1339
tp1340
a(L486118701L
L1912178190L
(lp1341
(lp1342
S'_smul'
p1343
atp1344
a(L2407048331L
L0L
(lp1345
(lp1346
tp1347
a(L1312006169L
L0L
(lp1348
(lp1349
tp1350
a(L2227439565L
L0L
(lp1351
(lp1352
tp1353
a(L2493621525L
L0L
(lp1354
(lp1355
tp1356
a(L3068587638L
L3438772250L
(lp1357
(lp1358
S'_mr_dif_fft'
p1359
atp1360
a(L1460566602L
L1650168448L
(lp1361
(lp1362
tp1363
a(L3555912049L
L0L
(lp1364
(lp1365
tp1366
a(L1904997457L
L0L
(lp1367
(lp1368
tp1369
a(L3276368860L
L0L
(lp1370
(lp1371
tp1372
a(L2227439565L
L0L
(lp1373
(lp1374
tp1375
a(L3982704910L
L0L
(lp1376
(lp1377
tp1378
a(L3440480189L
L3438772250L
(lp1379
(lp1380
S'_mr_dif_fft'
p1381
atp1382
a(L761075693L
L0L
(lp1383
(lp1384
tp1385
a(L2024159267L
L0L
(lp1386
(lp1387
tp1388
a(L1976708801L
L0L
(lp1389
(lp1390
tp1391
a(L1493420443L
L3438772250L
(lp1392
(lp1393
S'_muldiv'
p1394
atp1395
a(L4088211875L
L0L
(lp1396
(lp1397
tp1398
a(L4165697201L
L3438772250L
(lp1399
(lp1400
S'_mr_dit_fft'
p1401
atp1402
a(L625703931L
L0L
(lp1403
(lp1404
tp1405
a(L3850462847L
L0L
(lp1406
(lp1407
tp1408
a(L1391287986L
L3438772250L
(lp1409
(lp1410
S'_muldiv'
p1411
atp1412
a(L3697031476L
L1650168448L
(lp1413
(lp1414
tp1415
a(L119469774L
L0L
(lp1416
(lp1417
tp1418
a(L2154659146L
L0L
(lp1419
(lp1420
tp1421
a(L1577258823L
L0L
(lp1422
(lp1423
tp1424
a(L2767205327L
L1650168448L
(lp1425
(lp1426
tp1427
a(L1957051461L
L0L
(lp1428
(lp1429
tp1430
a(L517209370L
L1912178190L
(lp1431
(lp1432
S'_muldiv'
p1433
atp1434
a(L1957051461L
L0L
(lp1435
(lp1436
tp1437
a(L415238580L
L0L
(lp1438
(lp1439
tp1440
a(L220007370L
L3438772250L
(lp1441
(lp1442
S'_muldiv'
p1443
atp1444
a(L2332177315L
L0L
(lp1445
(lp1446
tp1447
a(L2062608269L
L0L
(lp1448
(lp1449
tp1450
a(L2498799773L
L4079538650L
(lp1451
(lp1452
S'_zero'
p1453
atp1454
a(L2515041607L
L0L
(lp1455
(lp1456
tp1457
a(L221496771L
L0L
(lp1458
(lp1459
tp1460
a(L2572371827L
L1650168448L
(lp1461
(lp1462
tp1463
a(L941203007L
L3438772250L
(lp1464
(lp1465
S'_muldvd'
p1466
atp1467
a(L1888027565L
L0L
(lp1468
(lp1469
tp1470
a(L1963171788L
L1015000508L
(lp1471
(lp1472
S'_muldvd'
p1473
aS'_muldvd'
p1474
atp1475
a(L1888027557L
L0L
(lp1476
(lp1477
tp1478
a(L2674444857L
L0L
(lp1479
(lp1480
tp1481
a(L3249209674L
L0L
(lp1482
(lp1483
tp1484
a(L1865857407L
L0L
(lp1485
(lp1486
tp1487
a(L983713326L
L0L
(lp1488
(lp1489
tp1490
a(L1305196429L
L1650168448L
(lp1491
(lp1492
tp1493
a(L3908444480L
L1190238782L
(lp1494
(lp1495
S'_muldiv'
p1496
aS'_muldiv'
p1497
aS'_muldiv'
p1498
atp1499
a(L1996881236L
L1912178190L
(lp1500
(lp1501
S'_mr_lzero'
p1502
atp1503
a(L3378836311L
L1912178190L
(lp1504
(lp1505
S'_multiply'
p1506
atp1507
a(L4183175228L
L0L
(lp1508
(lp1509
tp1510
a(L1004661111L
L3438772250L
(lp1511
(lp1512
S'_zero'
p1513
atp1514
a(L1480936997L
L0L
(lp1515
(lp1516
tp1517
atp1518
sL10688L
(S'_mr_shiftbits'
p1519
(lp1520
(L425776429L
L0L
(lp1521
(lp1522
tp1523
atp1524
sL10752L
(S'_subtract'
p1525
(lp1526
(L425776429L
L0L
(lp1527
(lp1528
tp1529
atp1530
sL10712L
(S'_nres_modsub'
p1531
(lp1532
(L425776429L
L0L
(lp1533
(lp1534
tp1535
atp1536
sL10788L
(S'_mr_lzero'
p1537
(lp1538
(L425776429L
L0L
(lp1539
(lp1540
tp1541
atp1542
sL10716L
(S'_redc'
p1543
(lp1544
(L425776429L
L0L
(lp1545
(lp1546
tp1547
atp1548
sL1776L
(S'_mr_dit_fft'
p1549
(lp1550
(L3080113386L
L432033468L
(lp1551
(lp1552
tp1553
a(L3865467461L
L0L
(lp1554
(lp1555
tp1556
a(L3586741960L
L0L
(lp1557
(lp1558
tp1559
a(L3002372565L
L0L
(lp1560
(lp1561
tp1562
a(L270053654L
L0L
(lp1563
(lp1564
tp1565
a(L66953284L
L0L
(lp1566
(lp1567
tp1568
a(L4008741055L
L0L
(lp1569
(lp1570
tp1571
a(L4122189476L
L0L
(lp1572
(lp1573
tp1574
a(L1862258059L
L0L
(lp1575
(lp1576
tp1577
a(L19694558L
L0L
(lp1578
(lp1579
tp1580
a(L3249209674L
L0L
(lp1581
(lp1582
tp1583
a(L984864848L
L0L
(lp1584
(lp1585
tp1586
a(L1939359098L
L0L
(lp1587
(lp1588
tp1589
a(L191240825L
L0L
(lp1590
(lp1591
tp1592
a(L1564152672L
L0L
(lp1593
(lp1594
tp1595
a(L748545990L
L0L
(lp1596
(lp1597
tp1598
a(L3242348523L
L0L
(lp1599
(lp1600
tp1601
a(L421957944L
L0L
(lp1602
(lp1603
tp1604
a(L4012324484L
L0L
(lp1605
(lp1606
tp1607
a(L484884206L
L0L
(lp1608
(lp1609
tp1610
a(L2516790500L
L0L
(lp1611
(lp1612
tp1613
a(L328372734L
L0L
(lp1614
(lp1615
tp1616
atp1617
sL3680L
(S'_twop'
p1618
(lp1619
(L3497259889L
L0L
(lp1620
(lp1621
tp1622
a(L3221628698L
L0L
(lp1623
(lp1624
tp1625
a(L425776429L
L0L
(lp1626
(lp1627
tp1628
atp1629
sL10768L
(S'_mr_pmul'
p1630
(lp1631
(L425776429L
L0L
(lp1632
(lp1633
tp1634
atp1635
sL10724L
(S'_scrt'
p1636
(lp1637
(L425776429L
L0L
(lp1638
(lp1639
tp1640
atp1641
sL10728L
(S'_mr_shift'
p1642
(lp1643
(L425776429L
L0L
(lp1644
(lp1645
tp1646
atp1647
sL10732L
(S'_muldiv'
p1648
(lp1649
(L425776429L
L0L
(lp1650
(lp1651
tp1652
atp1653
sL3696L
(S'_modxn_1'
p1654
(lp1655
(L3230565656L
L0L
(lp1656
(lp1657
tp1658
a(L2864745444L
L0L
(lp1659
(lp1660
tp1661
a(L1917269381L
L1354249480L
(lp1662
(lp1663
S'_nres_modadd'
p1664
aS'_zero'
p1665
atp1666
a(L1746581689L
L0L
(lp1667
(lp1668
tp1669
a(L2365836313L
L0L
(lp1670
(lp1671
tp1672
atp1673
sL10792L
(S'_muldvd'
p1674
(lp1675
(L425776429L
L0L
(lp1676
(lp1677
tp1678
atp1679
sL10672L
(S'_mr_alloc'
p1680
(lp1681
(L425776429L
L0L
(lp1682
(lp1683
tp1684
atp1685
sL10740L
(S'_nres_modadd'
p1686
(lp1687
(L425776429L
L0L
(lp1688
(lp1689
tp1690
atp1691
sL10736L
(S'_zero'
p1692
(lp1693
(L425776429L
L0L
(lp1694
(lp1695
tp1696
atp1697
sL10800L
(S'_mr_notint'
p1698
(lp1699
(L425776429L
L0L
(lp1700
(lp1701
tp1702
atp1703
sL10744L
(S'_copy'
p1704
(lp1705
(L425776429L
L0L
(lp1706
(lp1707
tp1708
atp1709
sL10708L
(S'_mr_free'
p1710
(lp1711
(L425776429L
L0L
(lp1712
(lp1713
tp1714
atp1715
sL10748L
(S'_mirvar'
p1716
(lp1717
(L425776429L
L0L
(lp1718
(lp1719
tp1720
atp1721
ssS'fuzzydups'
p1722
c__builtin__
set
p1723
((lp1724
tp1725
Rp1726
sS'stringdups'
p1727
g1723
((lp1728
tp1729
Rp1730
sS'immediates'
p1731
(dp1732
L2147483648L
L8608L
ssS'formaldups'
p1733
g1723
((lp1734
tp1735
Rp1736
sS'immediatedups'
p1737
g1723
((lp1738
tp1739
Rp1740
sS'fuzzy'
p1741
(dp1742
L407166496L
L8448L
sL2267585670L
L6800L
sL3676002889L
L928L
sL1696116522L
L0L
sL3215667850L
L7712L
sL3951533581L
L4480L
sL910570963L
L3680L
sL2101394321L
L3760L
sL2145525651L
L2224L
sL1951223383L
L10288L
sL1737426904L
L3696L
sL2125957130L
L5376L
sL4127740543L
L8608L
ssS'strings'
p1743
(dp1744
sS'formal'
p1745
(dp1746
L4277254531L
L3760L
sL635765893L
L2224L
sL585745032L
L1344L
sL131757545L
L0L
sL1298472046L
L4480L
sL1707282352L
L10288L
sL263291854L
L5376L
sL3067280722L
L6800L
sL3133147235L
L8448L
sL1172193653L
L3696L
sL2298970264L
L928L
sL4291909466L
L3680L
sL1307975067L
L7712L
sL2677641914L
L8608L
sL2092472158L
L1776L
ssb.