ccopy_reg
_reconstructor
p0
(c__main__
RizzoSignatures
p1
c__builtin__
object
p2
Ntp3
Rp4
(dp5
S'functions'
p6
(dp7
L0L
(S'_flop'
p8
(lp9
(L3985540784L
L1650168448L
(lp10
(lp11
tp12
a(L1227683260L
L1650168448L
(lp13
(lp14
tp15
a(L3984556112L
L1650168448L
(lp16
(lp17
tp18
a(L520110351L
L1912178190L
(lp19
(lp20
S'_mr_track'
p21
atp22
a(L903810958L
L1073147704L
(lp23
(lp24
S'_numer'
p25
aS'_denom'
p26
aS'_numer'
p27
aS'_denom'
p28
atp29
a(L3484325203L
L434665910L
(lp30
(lp31
S'_zero'
p32
atp33
a(L3087123545L
L0L
(lp34
(lp35
tp36
a(L2684345358L
L1650168448L
(lp37
(lp38
tp39
a(L3493290911L
L0L
(lp40
(lp41
tp42
a(L2207271300L
L1650168448L
(lp43
(lp44
tp45
a(L2694875619L
L1650168448L
(lp46
(lp47
tp48
a(L2932930073L
L1650168448L
(lp49
(lp50
tp51
a(L2709387550L
L1650168448L
(lp52
(lp53
tp54
a(L3493290911L
L0L
(lp55
(lp56
tp57
a(L1912390091L
L1650168448L
(lp58
(lp59
tp60
a(L1103369978L
L1650168448L
(lp61
(lp62
tp63
a(L199125242L
L0L
(lp64
(lp65
tp66
a(L492068877L
L3438772250L
(lp67
(lp68
S'_multiply'
p69
atp70
a(L982430708L
L434665910L
(lp71
(lp72
S'_premult'
p73
atp74
a(L2684345358L
L1650168448L
(lp75
(lp76
tp77
a(L257743217L
L1650168448L
(lp78
(lp79
tp80
a(L918206738L
L1650168448L
(lp81
(lp82
tp83
a(L886980762L
L1650168448L
(lp84
(lp85
tp86
a(L3868661661L
L3438772250L
(lp87
(lp88
S'_copy'
p89
atp90
a(L1262986239L
L1650168448L
(lp91
(lp92
tp93
a(L287537968L
L3438772250L
(lp94
(lp95
S'_add'
p96
atp97
a(L2556429896L
L0L
(lp98
(lp99
tp100
a(L1594608178L
L672529830L
(lp101
(lp102
S'_mround'
p103
atp104
a(L425776429L
L0L
(lp105
(lp106
tp107
atp108
sL3200L
(S'_mround'
p109
(lp110
(L425776429L
L0L
(lp111
(lp112
tp113
atp114
sL3204L
(S'_add'
p115
(lp116
(L425776429L
L0L
(lp117
(lp118
tp119
atp120
sL3208L
(S'_copy'
p121
(lp122
(L425776429L
L0L
(lp123
(lp124
tp125
atp126
sL3248L
(S'_divide'
p127
(lp128
(L425776429L
L0L
(lp129
(lp130
tp131
atp132
sL3212L
(S'_premult'
p133
(lp134
(L425776429L
L0L
(lp135
(lp136
tp137
atp138
sL3216L
(S'_multiply'
p139
(lp140
(L425776429L
L0L
(lp141
(lp142
tp143
atp144
sL3220L
(S'_zero'
p145
(lp146
(L425776429L
L0L
(lp147
(lp148
tp149
atp150
sL3224L
(S'_denom'
p151
(lp152
(L425776429L
L0L
(lp153
(lp154
tp155
atp156
sL3228L
(S'_numer'
p157
(lp158
(L425776429L
L0L
(lp159
(lp160
tp161
atp162
sL672L
(S'_fmul'
p163
(lp164
(L3243887440L
L1650168448L
(lp165
(lp166
tp167
a(L802278310L
L1650168448L
(lp168
(lp169
tp170
a(L167831160L
L1650168448L
(lp171
(lp172
tp173
a(L1868153140L
L3438772250L
(lp174
(lp175
S'_mr_track'
p176
atp177
a(L3475600659L
L1912178190L
(lp178
(lp179
S'_flop'
p180
atp181
a(L63054096L
L0L
(lp182
(lp183
tp184
atp185
sL2288L
(S'_fpmul'
p186
(lp187
(L3401534617L
L1650168448L
(lp188
(lp189
tp190
a(L1075495718L
L0L
(lp191
(lp192
tp193
a(L1917294806L
L3438772250L
(lp194
(lp195
S'_size'
p196
atp197
a(L1630129372L
L0L
(lp198
(lp199
tp200
a(L3571477677L
L3438772250L
(lp201
(lp202
S'_copy'
p203
atp204
a(L3991505636L
L2614424152L
(lp205
(lp206
tp207
a(L1143810094L
L1650168448L
(lp208
(lp209
tp210
a(L520110351L
L1912178190L
(lp211
(lp212
S'_mr_track'
p213
atp214
a(L2644043615L
L0L
(lp215
(lp216
tp217
a(L3159091679L
L0L
(lp218
(lp219
tp220
a(L1231095966L
L1715561822L
(lp221
(lp222
S'_numer'
p223
aS'_denom'
p224
aS'_subdiv'
p225
aS'_igcd'
p226
aS'_subdiv'
p227
aS'_igcd'
p228
aS'_premult'
p229
aS'_premult'
p230
aS'_subdiv'
p231
aS'_subdiv'
p232
aS'_fit'
p233
atp234
a(L4224652944L
L1912178190L
(lp235
(lp236
S'_fpack'
p237
atp238
a(L4224652944L
L1912178190L
(lp239
(lp240
S'_mround'
p241
atp242
a(L670475943L
L3438772250L
(lp243
(lp244
S'_zero'
p245
atp246
a(L1994012262L
L0L
(lp247
(lp248
tp249
atp250
sL3240L
(S'_mr_compare'
p251
(lp252
(L425776429L
L0L
(lp253
(lp254
tp255
atp256
sL3232L
(S'_mr_track'
p257
(lp258
(L425776429L
L0L
(lp259
(lp260
tp261
atp262
sL3244L
(S'_fpack'
p263
(lp264
(L425776429L
L0L
(lp265
(lp266
tp267
atp268
sL816L
(S'_fdiv'
p269
(lp270
(L3243887440L
L1650168448L
(lp271
(lp272
tp273
a(L802278310L
L1650168448L
(lp274
(lp275
tp276
a(L2832803849L
L1650168448L
(lp277
(lp278
tp279
a(L1868153140L
L3438772250L
(lp280
(lp281
S'_mr_track'
p282
atp283
a(L3882472420L
L1912178190L
(lp284
(lp285
S'_flop'
p286
atp287
a(L63054096L
L0L
(lp288
(lp289
tp290
atp291
sL3252L
(S'_convert'
p292
(lp293
(L425776429L
L0L
(lp294
(lp295
tp296
atp297
sL1536L
(S'_ftrunc'
p298
(lp299
(L3985540784L
L1650168448L
(lp300
(lp301
tp302
a(L1767301447L
L1650168448L
(lp303
(lp304
tp305
a(L2756391029L
L1650168448L
(lp306
(lp307
tp308
a(L520110351L
L1912178190L
(lp309
(lp310
S'_mr_track'
p311
atp312
a(L1248407585L
L1811290924L
(lp313
(lp314
S'_numer'
p315
aS'_denom'
p316
aS'_divide'
p317
aS'_copy'
p318
atp319
a(L2559700928L
L434665910L
(lp320
(lp321
S'_fpack'
p322
atp323
a(L3110991158L
L1650168448L
(lp324
(lp325
tp326
a(L425776429L
L0L
(lp327
(lp328
tp329
atp330
sL3256L
(S'_fit'
p331
(lp332
(L425776429L
L0L
(lp333
(lp334
tp335
atp336
sL3260L
(S'_igcd'
p337
(lp338
(L425776429L
L0L
(lp339
(lp340
tp341
atp342
sL960L
(S'_fadd'
p343
(lp344
(L3243887440L
L1650168448L
(lp345
(lp346
tp347
a(L802278310L
L1650168448L
(lp348
(lp349
tp350
a(L1202450358L
L1650168448L
(lp351
(lp352
tp353
a(L1868153140L
L3438772250L
(lp354
(lp355
S'_mr_track'
p356
atp357
a(L460843972L
L1912178190L
(lp358
(lp359
S'_flop'
p360
atp361
a(L63054096L
L0L
(lp362
(lp363
tp364
atp365
sL1952L
(S'_fconv'
p366
(lp367
(L3985540784L
L1650168448L
(lp368
(lp369
tp370
a(L1767301447L
L1650168448L
(lp371
(lp372
tp373
a(L2284404569L
L1650168448L
(lp374
(lp375
tp376
a(L520110351L
L1912178190L
(lp377
(lp378
S'_mr_track'
p379
atp380
a(L1714510536L
L0L
(lp381
(lp382
tp383
a(L462761501L
L0L
(lp384
(lp385
tp386
a(L1506439960L
L0L
(lp387
(lp388
tp389
a(L1731850840L
L1997743146L
(lp390
(lp391
S'_convert'
p392
aS'_convert'
p393
aS'_fpack'
p394
atp395
a(L425776429L
L0L
(lp396
(lp397
tp398
atp399
sL3268L
(S'_size'
p400
(lp401
(L425776429L
L0L
(lp402
(lp403
tp404
atp405
sL2128L
(S'_frecip'
p406
(lp407
(L3985540784L
L1650168448L
(lp408
(lp409
tp410
a(L1767301447L
L1650168448L
(lp411
(lp412
tp413
a(L337664006L
L1650168448L
(lp414
(lp415
tp416
a(L520110351L
L1912178190L
(lp417
(lp418
S'_mr_track'
p419
atp420
a(L3383310970L
L1997743146L
(lp421
(lp422
S'_numer'
p423
aS'_denom'
p424
aS'_fpack'
p425
atp426
a(L425776429L
L0L
(lp427
(lp428
tp429
atp430
sL1248L
(S'_fcomp'
p431
(lp432
(L489289533L
L1650168448L
(lp433
(lp434
tp435
a(L1310365671L
L0L
(lp436
(lp437
tp438
a(L1140748212L
L1650168448L
(lp439
(lp440
tp441
a(L318402880L
L1650168448L
(lp442
(lp443
tp444
a(L520110351L
L1912178190L
(lp445
(lp446
S'_mr_track'
p447
atp448
a(L1992260564L
L2222410514L
(lp449
(lp450
S'_numer'
p451
aS'_denom'
p452
aS'_multiply'
p453
aS'_numer'
p454
aS'_denom'
p455
aS'_multiply'
p456
aS'_mr_compare'
p457
atp458
atp459
sL1104L
(S'_fsub'
p460
(lp461
(L3243887440L
L1650168448L
(lp462
(lp463
tp464
a(L802278310L
L1650168448L
(lp465
(lp466
tp467
a(L275112279L
L1650168448L
(lp468
(lp469
tp470
a(L1868153140L
L3438772250L
(lp471
(lp472
S'_mr_track'
p473
atp474
a(L891045968L
L3201111617L
(lp475
L4294967295L
a(lp476
S'_flop'
p477
atp478
a(L63054096L
L0L
(lp479
(lp480
tp481
atp482
sL3264L
(S'_subdiv'
p483
(lp484
(L425776429L
L0L
(lp485
(lp486
tp487
atp488
sL2800L
(S'_fincr'
p489
(lp490
(L3985540784L
L1650168448L
(lp491
(lp492
tp493
a(L3626942274L
L1650168448L
(lp494
(lp495
tp496
a(L192881903L
L1650168448L
(lp497
(lp498
tp499
a(L520110351L
L1912178190L
(lp500
(lp501
S'_mr_track'
p502
atp503
a(L1217885763L
L0L
(lp504
(lp505
tp506
a(L2466977688L
L0L
(lp507
(lp508
tp509
a(L1928961880L
L0L
(lp510
(lp511
tp512
a(L107783237L
L2330009500L
(lp513
(lp514
S'_numer'
p515
aS'_denom'
p516
aS'_premult'
p517
aS'_premult'
p518
aS'_premult'
p519
aS'_add'
p520
atp521
a(L1400116166L
L434665910L
(lp522
(lp523
S'_fit'
p524
atp525
a(L4255566673L
L4079538650L
(lp526
(lp527
S'_fpack'
p528
atp529
a(L1372859488L
L4079538650L
(lp530
(lp531
S'_mround'
p532
atp533
a(L425776429L
L0L
(lp534
(lp535
tp536
atp537
sL1760L
(S'_fmodulo'
p538
(lp539
(L3985540784L
L1650168448L
(lp540
(lp541
tp542
a(L1140748212L
L1650168448L
(lp543
(lp544
tp545
a(L341376745L
L1650168448L
(lp546
(lp547
tp548
a(L520110351L
L1912178190L
(lp549
(lp550
S'_mr_track'
p551
atp552
a(L507406633L
L1073147704L
(lp553
(lp554
S'_fdiv'
p555
aS'_ftrunc'
p556
aS'_fmul'
p557
aS'_fsub'
p558
atp559
a(L425776429L
L0L
(lp560
(lp561
tp562
atp563
ssS'fuzzydups'
p564
c__builtin__
set
p565
((lp566
tp567
Rp568
sS'stringdups'
p569
g565
((lp570
tp571
Rp572
sS'immediates'
p573
(dp574
L4294967295L
L1104L
ssS'formaldups'
p575
g565
((lp576
tp577
Rp578
sS'immediatedups'
p579
g565
((lp580
tp581
Rp582
sS'fuzzy'
p583
(dp584
L2877930688L
L2288L
sL1587539874L
L2128L
sL3397977795L
L1952L
sL1001107846L
L1104L
sL1645649544L
L1536L
sL808002156L
L1248L
sL1337713232L
L0L
sL4290831991L
L2800L
sL2047683101L
L1760L
ssS'strings'
p585
(dp586
sS'formal'
p587
(dp588
L1430599654L
L2800L
sL4246788359L
L960L
sL2815227273L
L1248L
sL1235369994L
L2128L
sL2250932620L
L0L
sL1770717933L
L1104L
sL1844680366L
L1536L
sL206459437L
L1760L
sL3765427442L
L672L
sL3526415091L
L1952L
sL1626891450L
L816L
sL3195158602L
L2288L
ssb.