ccopy_reg
_reconstructor
p0
(c__main__
RizzoSignatures
p1
c__builtin__
object
p2
Ntp3
Rp4
(dp5
S'functions'
p6
(dp7
L0L
(S'_fpower'
p8
(lp9
(L3254370774L
L1309723220L
(lp10
(lp11
S'_copy'
p12
aS'_zero'
p13
atp14
a(L2319743441L
L3438772250L
(lp15
(lp16
S'_size'
p17
atp18
a(L1653760611L
L3438772250L
(lp19
(lp20
S'_convert'
p21
atp22
a(L2133487739L
L2614424152L
(lp23
(lp24
tp25
a(L1373406213L
L1650168448L
(lp26
(lp27
tp28
a(L520110351L
L1912178190L
(lp29
(lp30
S'_mr_track'
p31
atp32
a(L1499103601L
L0L
(lp33
(lp34
tp35
a(L3488454530L
L1912178190L
(lp36
(lp37
S'_frecip'
p38
atp39
a(L4283476518L
L0L
(lp40
(lp41
tp42
a(L1097850579L
L1912178190L
(lp43
(lp44
S'_copy'
p45
atp46
a(L1910114361L
L3991344600L
(lp47
L2147483649L
a(lp48
tp49
a(L2079164816L
L1504367734L
(lp50
L4294967294L
a(lp51
tp52
a(L653184198L
L0L
(lp53
(lp54
tp55
a(L713573535L
L1912178190L
(lp56
(lp57
S'_fmul'
p58
atp59
a(L1550608428L
L0L
(lp60
(lp61
tp62
a(L2417360738L
L0L
(lp63
(lp64
tp65
a(L3868233923L
L1912178190L
(lp66
(lp67
S'_fmul'
p68
atp69
a(L1386419591L
L0L
(lp70
(lp71
tp72
a(L2222856904L
L0L
(lp73
(lp74
tp75
atp76
sL2176L
(S'_flop'
p77
(lp78
(L425776429L
L0L
(lp79
(lp80
tp81
atp82
sL2180L
(S'_dconv'
p83
(lp84
(L425776429L
L0L
(lp85
(lp86
tp87
atp88
sL1800L
(S'_quad'
p89
(lp90
(L3478835031L
L1650168448L
(lp91
(lp92
tp93
a(L3860039980L
L1044686668L
(lp94
L4294967295L
aL1073741824L
a(lp95
tp96
a(L3249209674L
L0L
(lp97
(lp98
tp99
a(L3282266744L
L0L
(lp100
(lp101
tp102
a(L1558577683L
L0L
(lp103
(lp104
tp105
a(L2635512420L
L461496683L
(lp106
L1073741824L
a(lp107
tp108
a(L2188839541L
L1242608605L
(lp109
L1073741824L
a(lp110
S'_convert'
p111
atp112
a(L1356022597L
L0L
(lp113
(lp114
tp115
atp116
sL2188L
(S'_fpmul'
p117
(lp118
(L425776429L
L0L
(lp119
(lp120
tp121
atp122
sL2192L
(S'_fpi'
p123
(lp124
(L425776429L
L0L
(lp125
(lp126
tp127
atp128
sL2196L
(S'_mr_lent'
p129
(lp130
(L425776429L
L0L
(lp131
(lp132
tp133
atp134
sL2200L
(S'_fdiv'
p135
(lp136
(L425776429L
L0L
(lp137
(lp138
tp139
atp140
sL2204L
(S'_build'
p141
(lp142
(L425776429L
L0L
(lp143
(lp144
tp145
atp146
sL2208L
(S'_subtract'
p147
(lp148
(L425776429L
L0L
(lp149
(lp150
tp151
atp152
sL2212L
(S'_multiply'
p153
(lp154
(L425776429L
L0L
(lp155
(lp156
tp157
atp158
sL2216L
(S'_fpack'
p159
(lp160
(L425776429L
L0L
(lp161
(lp162
tp163
atp164
sL2220L
(S'_nroot'
p165
(lp166
(L425776429L
L0L
(lp167
(lp168
tp169
atp170
sL2224L
(S'_denom'
p171
(lp172
(L425776429L
L0L
(lp173
(lp174
tp175
atp176
sL2184L
(S'_fdsize'
p177
(lp178
(L425776429L
L0L
(lp179
(lp180
tp181
atp182
sL2228L
(S'_numer'
p183
(lp184
(L425776429L
L0L
(lp185
(lp186
tp187
atp188
sL2232L
(S'_insign'
p189
(lp190
(L425776429L
L0L
(lp191
(lp192
tp193
atp194
sL2236L
(S'_mr_berror'
p195
(lp196
(L425776429L
L0L
(lp197
(lp198
tp199
atp200
sL2240L
(S'_exsign'
p201
(lp202
(L425776429L
L0L
(lp203
(lp204
tp205
atp206
sL2248L
(S'__CIpow'
p207
(lp208
(L425776429L
L0L
(lp209
(lp210
tp211
atp212
sL336L
(S'_froot'
p213
(lp214
(L1290523633L
L1912178190L
(lp215
(lp216
S'_copy'
p217
atp218
a(L266375185L
L0L
(lp219
(lp220
tp221
a(L1476934685L
L1504367735L
(lp222
L4294967295L
a(lp223
tp224
a(L3421917938L
L3438772250L
(lp225
(lp226
S'_frecip'
p227
atp228
a(L2925585110L
L0L
(lp229
(lp230
tp231
a(L3244463293L
L1650168448L
(lp232
(lp233
tp234
a(L4139703552L
L1650168448L
(lp235
(lp236
tp237
a(L1868153140L
L3438772250L
(lp238
(lp239
S'_mr_track'
p240
atp241
a(L2557481284L
L0L
(lp242
(lp243
tp244
a(L68834371L
L0L
(lp245
(lp246
tp247
a(L716208609L
L4269683978L
(lp248
L2147483649L
a(lp249
S'_exsign'
p250
atp251
a(L2079164816L
L1504367734L
(lp252
L4294967294L
a(lp253
tp254
a(L3246209545L
L0L
(lp255
(lp256
tp257
a(L2317254108L
L1504367735L
(lp258
L4294967295L
a(lp259
tp260
a(L89351343L
L1912178190L
(lp261
(lp262
S'_mr_berror'
p263
atp264
a(L1307039340L
L91788322L
(lp265
(lp266
S'_insign'
p267
aS'_numer'
p268
aS'_denom'
p269
aS'_nroot'
p270
aS'_nroot'
p271
atp272
a(L1880489932L
L0L
(lp273
(lp274
tp275
a(L507561383L
L434665910L
(lp276
(lp277
S'_fpack'
p278
atp279
a(L3421917938L
L3438772250L
(lp280
(lp281
S'_frecip'
p282
atp283
a(L4213851801L
L1912178190L
(lp284
(lp285
S'_insign'
p286
atp287
a(L4237581066L
L1015000508L
(lp288
(lp289
S'_size'
p290
aS'_size'
p291
atp292
a(L185053650L
L3667354999L
(lp293
L1073741824L
a(lp294
tp295
a(L8512578L
L0L
(lp296
(lp297
tp298
a(L797306197L
L3667354999L
(lp299
L1073741824L
a(lp300
tp301
a(L2529152451L
L0L
(lp302
(lp303
tp304
a(L2357241L
L0L
(lp305
(lp306
tp307
a(L1234245423L
L3667354999L
(lp308
L1073741824L
a(lp309
tp310
a(L3839672598L
L1492705972L
(lp311
(lp312
S'_multiply'
p313
aS'_numer'
p314
aS'_subtract'
p315
aS'_build'
p316
atp317
a(L4172698426L
L0L
(lp318
(lp319
tp320
a(L3738991066L
L3667354999L
(lp321
L1073741824L
a(lp322
tp323
a(L3565242429L
L1492705972L
(lp324
(lp325
S'_multiply'
p326
aS'_denom'
p327
aS'_subtract'
p328
aS'_build'
p329
atp330
a(L3338038850L
L4079538650L
(lp331
(lp332
S'_size'
p333
atp334
a(L690689905L
L3438772250L
(lp335
(lp336
S'_copy'
p337
atp338
a(L2849216697L
L3438772250L
(lp339
(lp340
S'_fdiv'
p341
atp342
a(L4079588929L
L0L
(lp343
(lp344
tp345
a(L3421917938L
L3438772250L
(lp346
(lp347
S'_frecip'
p348
atp349
a(L1428924404L
L1912178190L
(lp350
(lp351
S'_insign'
p352
atp353
a(L1813915876L
L3438772250L
(lp354
(lp355
S'_mr_lent'
p356
atp357
a(L3849294751L
L101928568L
(lp358
(lp359
S'_fpi'
p360
aS'_fpmul'
p361
aS'_fpower'
p362
aS'_fmul'
p363
atp364
a(L4129757492L
L656749438L
(lp365
(lp366
S'_fdsize'
p367
aS'__CIpow'
p368
aS'_dconv'
p369
atp370
a(L3255209645L
L0L
(lp371
(lp372
tp373
a(L2178498523L
L1650168448L
(lp374
(lp375
tp376
a(L3830253826L
L0L
(lp377
(lp378
tp379
a(L345525746L
L0L
(lp380
(lp381
tp382
a(L2946188323L
L0L
(lp383
(lp384
tp385
a(L2166865071L
L1650168448L
(lp386
(lp387
tp388
a(L3155342239L
L1997743146L
(lp389
(lp390
S'_fpower'
p391
aS'_fdiv'
p392
aS'_flop'
p393
atp394
a(L489945833L
L3438772250L
(lp395
(lp396
S'_copy'
p397
atp398
a(L3618586505L
L434665910L
(lp399
(lp400
S'_flop'
p401
atp402
a(L1212587387L
L0L
(lp403
(lp404
tp405
a(L3421917938L
L3438772250L
(lp406
(lp407
S'_frecip'
p408
atp409
a(L3937072408L
L1912178190L
(lp410
(lp411
S'_insign'
p412
atp413
atp414
sL2144L
(S'_fmul'
p415
(lp416
(L425776429L
L0L
(lp417
(lp418
tp419
atp420
sL2148L
(S'_frecip'
p421
(lp422
(L425776429L
L0L
(lp423
(lp424
tp425
atp426
sL2152L
(S'_mr_track'
p427
(lp428
(L425776429L
L0L
(lp429
(lp430
tp431
atp432
sL2156L
(S'_convert'
p433
(lp434
(L425776429L
L0L
(lp435
(lp436
tp437
atp438
sL2160L
(S'_size'
p439
(lp440
(L425776429L
L0L
(lp441
(lp442
tp443
atp444
sL2164L
(S'_zero'
p445
(lp446
(L425776429L
L0L
(lp447
(lp448
tp449
atp450
sL2168L
(S'_copy'
p451
(lp452
(L425776429L
L0L
(lp453
(lp454
tp455
atp456
ssS'fuzzydups'
p457
c__builtin__
set
p458
((lp459
tp460
Rp461
sS'stringdups'
p462
g458
((lp463
tp464
Rp465
sS'immediates'
p466
(dp467
sS'formaldups'
p468
g458
((lp469
tp470
Rp471
sS'immediatedups'
p472
g458
((lp473
tp474
Rp475
sS'fuzzy'
p476
(dp477
L61182532L
L336L
sL3040265140L
L0L
sL915119038L
L1800L
ssS'strings'
p478
(dp479
sS'formal'
p480
(dp481
L791608020L
L336L
sL2677864158L
L1800L
sL3779687678L
L0L
ssb.