ccopy_reg
_reconstructor
p0
(c__main__
RizzoSignatures
p1
c__builtin__
object
p2
Ntp3
Rp4
(dp5
S'functions'
p6
(dp7
L0L
(S'_ftanh'
p8
(lp9
(L1027983620L
L1912178190L
(lp10
(lp11
S'_copy'
p12
atp13
a(L2888590780L
L3438772250L
(lp14
(lp15
S'_size'
p16
atp17
a(L2133487739L
L2614424152L
(lp18
(lp19
tp20
a(L2275426267L
L1650168448L
(lp21
(lp22
tp23
a(L1868153140L
L3438772250L
(lp24
(lp25
S'_mr_track'
p26
atp27
a(L3994043542L
L3961351483L
(lp28
L4294967295L
a(lp29
S'_fexp'
p30
aS'_flop'
p31
atp32
a(L948849424L
L0L
(lp33
(lp34
tp35
atp36
sL192L
(S'_fatanh'
p37
(lp38
(L1027983620L
L1912178190L
(lp39
(lp40
S'_copy'
p41
atp42
a(L2888590780L
L3438772250L
(lp43
(lp44
S'_size'
p45
atp46
a(L3868219565L
L2614424152L
(lp47
(lp48
tp49
a(L2217537871L
L1650168448L
(lp50
(lp51
tp52
a(L520110351L
L1912178190L
(lp53
(lp54
S'_mr_track'
p55
atp56
a(L3115933927L
L2346172039L
(lp57
L4294967295L
a(lp58
S'_fconv'
p59
aS'_flop'
p60
aS'_flog'
p61
aS'_fpmul'
p62
atp63
a(L948849424L
L0L
(lp64
(lp65
tp66
atp67
sL1300L
(S'_convert'
p68
(lp69
(L425776429L
L0L
(lp70
(lp71
tp72
atp73
sL1252L
(S'_fexp'
p74
(lp75
(L425776429L
L0L
(lp76
(lp77
tp78
atp79
sL848L
(S'_fcosh'
p80
(lp81
(L1027983620L
L1912178190L
(lp82
(lp83
S'_copy'
p84
atp85
a(L2888590780L
L3438772250L
(lp86
(lp87
S'_size'
p88
atp89
a(L2133487739L
L2614424152L
(lp90
(lp91
tp92
a(L1410506155L
L1650168448L
(lp93
(lp94
tp95
a(L1868153140L
L3438772250L
(lp96
(lp97
S'_mr_track'
p98
atp99
a(L1912267662L
L3504974572L
(lp100
(lp101
S'_fexp'
p102
aS'_flop'
p103
atp104
a(L214246776L
L3438772250L
(lp105
(lp106
S'_convert'
p107
atp108
atp109
sL1056L
(S'_facosh'
p110
(lp111
(L874936557L
L1912178190L
(lp112
(lp113
S'_copy'
p114
atp115
a(L2622929612L
L1650168448L
(lp116
(lp117
tp118
a(L1631001475L
L1650168448L
(lp119
(lp120
tp121
a(L520110351L
L1912178190L
(lp122
(lp123
S'_mr_track'
p124
atp125
a(L2421629493L
L869481955L
(lp126
L4294967295L
a(lp127
S'_fmul'
p128
aS'_fincr'
p129
aS'_froot'
p130
aS'_fadd'
p131
aS'_flog'
p132
atp133
a(L1356022597L
L0L
(lp134
(lp135
tp136
atp137
sL1256L
(S'_mr_track'
p138
(lp139
(L425776429L
L0L
(lp140
(lp141
tp142
atp143
sL1292L
(S'_fincr'
p144
(lp145
(L425776429L
L0L
(lp146
(lp147
tp148
atp149
sL1260L
(S'_size'
p150
(lp151
(L425776429L
L0L
(lp152
(lp153
tp154
atp155
sL1248L
(S'_flop'
p156
(lp157
(L425776429L
L0L
(lp158
(lp159
tp160
atp161
sL1280L
(S'_fconv'
p162
(lp163
(L425776429L
L0L
(lp164
(lp165
tp166
atp167
sL432L
(S'_fsinh'
p168
(lp169
(L1027983620L
L1912178190L
(lp170
(lp171
S'_copy'
p172
atp173
a(L2888590780L
L3438772250L
(lp174
(lp175
S'_size'
p176
atp177
a(L2133487739L
L2614424152L
(lp178
(lp179
tp180
a(L470024509L
L1650168448L
(lp181
(lp182
tp183
a(L1868153140L
L3438772250L
(lp184
(lp185
S'_mr_track'
p186
atp187
a(L1461268490L
L3961351483L
(lp188
L4294967295L
a(lp189
S'_fexp'
p190
aS'_flop'
p191
atp192
a(L948849424L
L0L
(lp193
(lp194
tp195
atp196
sL1288L
(S'_froot'
p197
(lp198
(L425776429L
L0L
(lp199
(lp200
tp201
atp202
sL1268L
(S'_copy'
p203
(lp204
(L425776429L
L0L
(lp205
(lp206
tp207
atp208
sL1296L
(S'_fmul'
p209
(lp210
(L425776429L
L0L
(lp211
(lp212
tp213
atp214
sL1272L
(S'_fpmul'
p215
(lp216
(L425776429L
L0L
(lp217
(lp218
tp219
atp220
sL624L
(S'_fasinh'
p221
(lp222
(L1407091065L
L1912178190L
(lp223
(lp224
S'_copy'
p225
atp226
a(L2888590780L
L3438772250L
(lp227
(lp228
S'_size'
p229
atp230
a(L3868219565L
L2614424152L
(lp231
(lp232
tp233
a(L3734932705L
L1650168448L
(lp234
(lp235
tp236
a(L520110351L
L1912178190L
(lp237
(lp238
S'_mr_track'
p239
atp240
a(L4136574295L
L654929350L
(lp241
(lp242
S'_fmul'
p243
aS'_fincr'
p244
aS'_froot'
p245
aS'_fadd'
p246
aS'_flog'
p247
atp248
a(L1356022597L
L0L
(lp249
(lp250
tp251
atp252
sL1276L
(S'_flog'
p253
(lp254
(L425776429L
L0L
(lp255
(lp256
tp257
atp258
sL1284L
(S'_fadd'
p259
(lp260
(L425776429L
L0L
(lp261
(lp262
tp263
atp264
ssS'fuzzydups'
p265
c__builtin__
set
p266
((lp267
tp268
Rp269
sS'stringdups'
p270
g266
((lp271
tp272
Rp273
sS'immediates'
p274
(dp275
sS'formaldups'
p276
g266
((lp277
tp278
Rp279
sS'immediatedups'
p280
g266
((lp281
tp282
Rp283
sS'fuzzy'
p284
(dp285
L1285970266L
L624L
sL1261594635L
L1056L
sL2085308042L
L848L
sL297758311L
L192L
ssS'strings'
p286
(dp287
sS'formal'
p288
(dp289
L1080123243L
L1056L
sL271002766L
L0L
sL3700246803L
L848L
sL2152670934L
L192L
sL132593175L
L624L
sL1697142429L
L432L
ssb.