ccopy_reg
_reconstructor
p0
(c__main__
RizzoSignatures
p1
c__builtin__
object
p2
Ntp3
Rp4
(dp5
S'functions'
p6
(dp7
L0L
(S'_fexp'
p8
(lp9
(L2385648399L
L1650168448L
(lp10
(lp11
tp12
a(L736933502L
L3438772250L
(lp13
(lp14
S'_size'
p15
atp16
a(L1459040964L
L3438772250L
(lp17
(lp18
S'_convert'
p19
atp20
a(L1676604661L
L609169042L
(lp21
(lp22
S'_copy'
p23
atp24
a(L260108779L
L1650168448L
(lp25
(lp26
tp27
a(L1868153140L
L3438772250L
(lp28
(lp29
S'_mr_track'
p30
atp31
a(L2673969034L
L3438772250L
(lp32
(lp33
S'_size'
p34
atp35
a(L3674150960L
L3438772250L
(lp36
(lp37
S'_negify'
p38
atp39
a(L2442926152L
L785109931L
(lp40
L1073741824L
a(lp41
S'_ftrunc'
p42
aS'_size'
p43
atp44
a(L1247788231L
L1912178190L
(lp45
(lp46
S'_mr_berror'
p47
atp48
a(L2635043499L
L0L
(lp49
(lp50
tp51
a(L4056042174L
L3438772250L
(lp52
(lp53
S'_convert'
p54
atp55
a(L3443865462L
L434665910L
(lp56
(lp57
S'_build'
p58
atp59
a(L1734497606L
L3292274482L
(lp60
(lp61
S'_fpower'
p62
atp63
a(L500199186L
L1912178190L
(lp64
(lp65
S'_zero'
p66
atp67
a(L3189989754L
L3438772250L
(lp68
(lp69
S'_fpower'
p70
atp71
a(L3364638633L
L434665910L
(lp72
(lp73
S'_size'
p74
atp75
a(L3638389938L
L0L
(lp76
(lp77
tp78
a(L3249209674L
L0L
(lp79
(lp80
tp81
a(L1246915586L
L3652417470L
(lp82
(lp83
S'_isqrt'
p84
aS'_copy'
p85
aS'_frecip'
p86
aS'_ftrunc'
p87
aS'_logb2'
p88
atp89
a(L2224448145L
L1015000508L
(lp90
(lp91
S'_expb2'
p92
aS'_fdiv'
p93
atp94
a(L2229032869L
L434665910L
(lp95
(lp96
S'_zero'
p97
atp98
a(L2698492618L
L3991344600L
(lp99
L2147483649L
a(lp100
tp101
a(L3125598927L
L1504367734L
(lp102
L4294967294L
a(lp103
tp104
a(L3246209545L
L0L
(lp105
(lp106
tp107
a(L1130311858L
L0L
(lp108
(lp109
tp110
a(L2510989453L
L1504367735L
(lp111
L4294967295L
a(lp112
tp113
a(L862524663L
L434665910L
(lp114
(lp115
S'_flop'
p116
atp117
a(L602733690L
L0L
(lp118
(lp119
tp120
a(L1490251508L
L434665910L
(lp121
(lp122
S'_flop'
p123
atp124
a(L3342521589L
L434665910L
(lp125
(lp126
S'_flop'
p127
atp128
a(L3421917938L
L3438772250L
(lp129
(lp130
S'_frecip'
p131
atp132
a(L3110991158L
L1650168448L
(lp133
(lp134
tp135
a(L2876811099L
L0L
(lp136
(lp137
tp138
atp139
sL1792L
(S'_frecip'
p140
(lp141
(L425776429L
L0L
(lp142
(lp143
tp144
atp145
sL1796L
(S'_isqrt'
p146
(lp147
(L425776429L
L0L
(lp148
(lp149
tp150
atp151
sL1800L
(S'_zero'
p152
(lp153
(L425776429L
L0L
(lp154
(lp155
tp156
atp157
sL1804L
(S'_fpower'
p158
(lp159
(L425776429L
L0L
(lp160
(lp161
tp162
atp163
sL1808L
(S'_build'
p164
(lp165
(L425776429L
L0L
(lp166
(lp167
tp168
atp169
sL1812L
(S'_mr_berror'
p170
(lp171
(L425776429L
L0L
(lp172
(lp173
tp174
atp175
sL1816L
(S'_ftrunc'
p176
(lp177
(L425776429L
L0L
(lp178
(lp179
tp180
atp181
sL1820L
(S'_negify'
p182
(lp183
(L425776429L
L0L
(lp184
(lp185
tp186
atp187
sL928L
(S'_flog'
p188
(lp189
(L1290553089L
L1912178190L
(lp190
(lp191
S'_copy'
p192
atp193
a(L4120306289L
L3438772250L
(lp194
(lp195
S'_size'
p196
atp197
a(L4110250587L
L3438772250L
(lp198
(lp199
S'_zero'
p200
atp201
a(L703222587L
L2614424152L
(lp202
(lp203
tp204
a(L2808454724L
L1650168448L
(lp205
(lp206
tp207
a(L1868153140L
L3438772250L
(lp208
(lp209
S'_mr_track'
p210
atp211
a(L2888590753L
L3438772250L
(lp212
(lp213
S'_size'
p214
atp215
a(L415494757L
L1912178190L
(lp216
(lp217
S'_mr_berror'
p218
atp219
a(L411265902L
L3438772250L
(lp220
(lp221
S'_mr_lent'
p222
atp223
a(L224216662L
L625696804L
(lp224
(lp225
S'_build'
p226
aS'_fdiv'
p227
atp228
a(L2234584836L
L286100867L
(lp229
L4294967295L
a(lp230
S'_fdsize'
p231
aS'_dconv'
p232
atp233
a(L3255209645L
L0L
(lp234
(lp235
tp236
a(L2178498523L
L1650168448L
(lp237
(lp238
tp239
a(L3830253826L
L0L
(lp240
(lp241
tp242
a(L345525746L
L0L
(lp243
(lp244
tp245
a(L2946188323L
L0L
(lp246
(lp247
tp248
a(L2166865071L
L1650168448L
(lp249
(lp250
tp251
a(L3102311596L
L1997743146L
(lp252
(lp253
S'_fexp'
p254
aS'_flop'
p255
aS'_fadd'
p256
atp257
a(L1611244894L
L3438772250L
(lp258
(lp259
S'_copy'
p260
atp261
a(L765244001L
L3438772250L
(lp262
(lp263
S'_fincr'
p264
atp265
a(L3110991158L
L1650168448L
(lp266
(lp267
tp268
a(L1191886687L
L0L
(lp269
(lp270
tp271
atp272
sL1828L
(S'_copy'
p273
(lp274
(L425776429L
L0L
(lp275
(lp276
tp277
atp278
sL1832L
(S'_convert'
p279
(lp280
(L425776429L
L0L
(lp281
(lp282
tp283
atp284
sL1836L
(S'_size'
p285
(lp286
(L425776429L
L0L
(lp287
(lp288
tp289
atp290
sL1844L
(S'_fincr'
p291
(lp292
(L425776429L
L0L
(lp293
(lp294
tp295
atp296
sL1848L
(S'_fadd'
p297
(lp298
(L425776429L
L0L
(lp299
(lp300
tp301
atp302
sL1852L
(S'_dconv'
p303
(lp304
(L425776429L
L0L
(lp305
(lp306
tp307
atp308
sL1856L
(S'_fdsize'
p309
(lp310
(L425776429L
L0L
(lp311
(lp312
tp313
atp314
sL1824L
(S'_mr_track'
p315
(lp316
(L425776429L
L0L
(lp317
(lp318
tp319
atp320
sL1860L
(S'_mr_lent'
p321
(lp322
(L425776429L
L0L
(lp323
(lp324
tp325
atp326
sL1868L
(S'_froot'
p327
(lp328
(L425776429L
L0L
(lp329
(lp330
tp331
atp332
sL1488L
(S'_fpowf'
p333
(lp334
(L108603268L
L1650168448L
(lp335
(lp336
tp337
a(L3738563475L
L1650168448L
(lp338
(lp339
tp340
a(L93490820L
L1650168448L
(lp341
(lp342
tp343
a(L1868153140L
L3438772250L
(lp344
(lp345
S'_mr_track'
p346
atp347
a(L166259287L
L3438772250L
(lp348
(lp349
S'_size'
p350
atp351
a(L2883385512L
L0L
(lp352
(lp353
tp354
a(L3108062648L
L3667354999L
(lp355
L1073741824L
a(lp356
tp357
a(L2374514020L
L1912178190L
(lp358
(lp359
S'_fpower'
p360
atp361
a(L3832261460L
L1015000508L
(lp362
(lp363
S'_frecip'
p364
aS'_size'
p365
atp366
a(L2883385512L
L0L
(lp367
(lp368
tp369
a(L3108062648L
L3667354999L
(lp370
L1073741824L
a(lp371
tp372
a(L2374514020L
L1912178190L
(lp373
(lp374
S'_froot'
p375
atp376
a(L2947928403L
L1726962900L
(lp377
(lp378
S'_copy'
p379
aS'_flog'
p380
aS'_fdiv'
p381
aS'_fexp'
p382
atp383
a(L1356022597L
L0L
(lp384
(lp385
tp386
atp387
sL864L
(S'_expon'
p388
(lp389
(L64857444L
L0L
(lp390
(lp391
tp392
a(L2469315188L
L0L
(lp393
(lp394
tp395
a(L493278262L
L0L
(lp396
(lp397
tp398
a(L2993438472L
L3588293998L
(lp399
L1431655766L
a(lp400
tp401
a(L803861955L
L0L
(lp402
(lp403
tp404
atp405
sL1776L
(S'_flop'
p406
(lp407
(L425776429L
L0L
(lp408
(lp409
tp410
atp411
sL1780L
(S'_fdiv'
p412
(lp413
(L425776429L
L0L
(lp414
(lp415
tp416
atp417
sL1784L
(S'_expb2'
p418
(lp419
(L425776429L
L0L
(lp420
(lp421
tp422
atp423
sL1788L
(S'_logb2'
p424
(lp425
(L425776429L
L0L
(lp426
(lp427
tp428
atp429
ssS'fuzzydups'
p430
c__builtin__
set
p431
((lp432
tp433
Rp434
sS'stringdups'
p435
g431
((lp436
tp437
Rp438
sS'immediates'
p439
(dp440
L2147483649L
L0L
sL1431655766L
L864L
sL4294967294L
L0L
ssS'formaldups'
p441
g431
((lp442
tp443
Rp444
sS'immediatedups'
p445
g431
((lp446
tp447
Rp448
sS'fuzzy'
p449
(dp450
L1077723314L
L864L
sL4083400708L
L0L
sL902720290L
L1488L
sL119196894L
L928L
ssS'strings'
p451
(dp452
sS'formal'
p453
(dp454
L3155791834L
L864L
sL1755815917L
L0L
sL2026335918L
L1488L
sL3225366802L
L928L
ssb.