ccopy_reg
_reconstructor
p0
(c__main__
RizzoSignatures
p1
c__builtin__
object
p2
Ntp3
Rp4
(dp5
S'functions'
p6
(dp7
L0L
(S'_ftan'
p8
(lp9
(L276135837L
L1912178190L
(lp10
(lp11
S'_copy'
p12
atp13
a(L3285542666L
L3438772250L
(lp14
(lp15
S'_size'
p16
atp17
a(L1182507558L
L2614424152L
(lp18
(lp19
tp20
a(L3009804506L
L1650168448L
(lp21
(lp22
tp23
a(L1868153140L
L3438772250L
(lp24
(lp25
S'_mr_track'
p26
atp27
a(L2528298954L
L2993483802L
(lp28
(lp29
S'_norm'
p30
aS'_ftrunc'
p31
aS'_size'
p32
atp33
a(L2250690810L
L434665910L
(lp34
(lp35
S'_build'
p36
atp37
a(L2369600125L
L434665910L
(lp38
(lp39
S'_size'
p40
atp41
a(L3976260627L
L1912178190L
(lp42
(lp43
S'_insign'
p44
atp45
a(L1869586290L
L3652417470L
(lp46
(lp47
S'_isqrt'
p48
aS'_copy'
p49
aS'_frecip'
p50
aS'_ftrunc'
p51
aS'_logb2'
p52
atp53
a(L3386378304L
L1015000508L
(lp54
(lp55
S'_expb2'
p56
aS'_fdiv'
p57
atp58
a(L2515597119L
L3606524018L
(lp59
(lp60
S'_zero'
p61
aS'_fmul'
p62
aS'_negify'
p63
atp64
a(L137978534L
L0L
(lp65
(lp66
tp67
a(L1905348290L
L434665910L
(lp68
(lp69
S'_flop'
p70
atp71
a(L2227167049L
L0L
(lp72
(lp73
tp74
a(L4224915267L
L3286821213L
(lp75
L4294967295L
a(lp76
S'_flop'
p77
atp78
a(L2237262273L
L434665910L
(lp79
(lp80
S'_flop'
p81
atp82
a(L835172862L
L1309723220L
(lp83
(lp84
S'_flop'
p85
aS'_insign'
p86
atp87
a(L2658782828L
L0L
(lp88
(lp89
tp90
atp91
sL2304L
(S'_fasin'
p92
(lp93
(L1027983620L
L1912178190L
(lp94
(lp95
S'_copy'
p96
atp97
a(L2888590780L
L3438772250L
(lp98
(lp99
S'_size'
p100
atp101
a(L3096356244L
L2614424152L
(lp102
(lp103
tp104
a(L1764133944L
L1650168448L
(lp105
(lp106
tp107
a(L1868153140L
L3438772250L
(lp108
(lp109
S'_mr_track'
p110
atp111
a(L3385175123L
L1304024095L
(lp112
L4294967295L
a(lp113
S'_exsign'
p114
aS'_insign'
p115
aS'_flop'
p116
aS'_froot'
p117
aS'_size'
p118
atp119
a(L2950459752L
L1015000508L
(lp120
(lp121
S'_fpi'
p122
aS'_fpmul'
p123
atp124
a(L249642479L
L3872313376L
(lp125
(lp126
S'_fdiv'
p127
aS'_fatan'
p128
atp129
a(L4144295440L
L1912178190L
(lp130
(lp131
S'_insign'
p132
atp133
a(L948849424L
L0L
(lp134
(lp135
tp136
atp137
sL1168L
(S'_tan1'
p138
(lp139
(L3242373771L
L0L
(lp140
(lp141
tp142
a(L4097069676L
L3991344600L
(lp143
L2147483649L
a(lp144
tp145
a(L3125598927L
L1504367734L
(lp146
L4294967294L
a(lp147
tp148
a(L1303820903L
L0L
(lp149
(lp150
tp151
a(L245873752L
L0L
(lp152
(lp153
tp154
a(L803861955L
L0L
(lp155
(lp156
tp157
atp158
sL3092L
(S'_negify'
p159
(lp160
(L425776429L
L0L
(lp161
(lp162
tp163
atp164
sL3096L
(S'_fmul'
p165
(lp166
(L425776429L
L0L
(lp167
(lp168
tp169
atp170
sL3100L
(S'_zero'
p171
(lp172
(L425776429L
L0L
(lp173
(lp174
tp175
atp176
sL3104L
(S'_fdiv'
p177
(lp178
(L425776429L
L0L
(lp179
(lp180
tp181
atp182
sL3108L
(S'_expb2'
p183
(lp184
(L425776429L
L0L
(lp185
(lp186
tp187
atp188
sL3112L
(S'_logb2'
p189
(lp190
(L425776429L
L0L
(lp191
(lp192
tp193
atp194
sL3168L
(S'_fadd'
p195
(lp196
(L425776429L
L0L
(lp197
(lp198
tp199
atp200
sL3116L
(S'_frecip'
p201
(lp202
(L425776429L
L0L
(lp203
(lp204
tp205
atp206
sL3120L
(S'_isqrt'
p207
(lp208
(L425776429L
L0L
(lp209
(lp210
tp211
atp212
sL3124L
(S'_insign'
p213
(lp214
(L425776429L
L0L
(lp215
(lp216
tp217
atp218
sL3128L
(S'_build'
p219
(lp220
(L425776429L
L0L
(lp221
(lp222
tp223
atp224
sL3132L
(S'_ftrunc'
p225
(lp226
(L425776429L
L0L
(lp227
(lp228
tp229
atp230
sL1216L
(S'_fatan'
p231
(lp232
(L3399410922L
L1912178190L
(lp233
(lp234
S'_copy'
p235
atp236
a(L2888590780L
L3438772250L
(lp237
(lp238
S'_size'
p239
atp240
a(L703222587L
L2614424152L
(lp241
(lp242
tp243
a(L2796130690L
L1650168448L
(lp244
(lp245
tp246
a(L1868153140L
L3438772250L
(lp247
(lp248
S'_mr_track'
p249
atp250
a(L525002397L
L2484234122L
(lp251
(lp252
S'_exsign'
p253
aS'_insign'
p254
aS'_fpi'
p255
aS'_fconv'
p256
aS'_fcomp'
p257
atp258
a(L2985644800L
L1309723220L
(lp259
(lp260
S'_fpmul'
p261
aS'_insign'
p262
atp263
a(L3248209552L
L0L
(lp264
(lp265
tp266
a(L711946456L
L3438772250L
(lp267
(lp268
S'_frecip'
p269
atp270
a(L1771962772L
L3438772250L
(lp271
(lp272
S'_mr_lent'
p273
atp274
a(L3327865898L
L3385340711L
(lp275
L4294967295L
a(lp276
S'_fconv'
p277
aS'_froot'
p278
aS'_flop'
p279
atp280
a(L1513097762L
L3518178912L
(lp281
(lp282
S'_fdsize'
p283
aS'_dconv'
p284
atp285
a(L3255209645L
L0L
(lp286
(lp287
tp288
a(L2178498523L
L1650168448L
(lp289
(lp290
tp291
a(L3830253826L
L0L
(lp292
(lp293
tp294
a(L345525746L
L0L
(lp295
(lp296
tp297
a(L2946188323L
L0L
(lp298
(lp299
tp300
a(L2166865071L
L1650168448L
(lp301
(lp302
tp303
a(L1389917789L
L154296902L
(lp304
(lp305
S'_ftan'
p306
aS'_fsub'
p307
aS'_fmul'
p308
aS'_flop'
p309
aS'_fadd'
p310
atp311
a(L3531043888L
L3438772250L
(lp312
(lp313
S'_copy'
p314
atp315
a(L1053936422L
L434665910L
(lp316
(lp317
S'_flop'
p318
atp319
a(L509834722L
L1504367734L
(lp320
L4294967294L
a(lp321
tp322
a(L1053936422L
L434665910L
(lp323
(lp324
S'_flop'
p325
atp326
a(L4268041361L
L1912178190L
(lp327
(lp328
S'_insign'
p329
atp330
a(L3097077601L
L0L
(lp331
(lp332
tp333
atp334
sL2080L
(S'_fsin'
p335
(lp336
(L1027983620L
L1912178190L
(lp337
(lp338
S'_copy'
p339
atp340
a(L2888590780L
L3438772250L
(lp341
(lp342
S'_size'
p343
atp344
a(L1254605130L
L2614424152L
(lp345
(lp346
tp347
a(L3680306831L
L1650168448L
(lp348
(lp349
tp350
a(L1868153140L
L3438772250L
(lp351
(lp352
S'_mr_track'
p353
atp354
a(L2095065476L
L2141623094L
(lp355
(lp356
S'_norm'
p357
aS'_fpmul'
p358
aS'_ftan'
p359
aS'_flop'
p360
aS'_insign'
p361
atp362
a(L948849424L
L0L
(lp363
(lp364
tp365
atp366
sL3140L
(S'_size'
p367
(lp368
(L425776429L
L0L
(lp369
(lp370
tp371
atp372
sL3152L
(S'_fsub'
p373
(lp374
(L425776429L
L0L
(lp375
(lp376
tp377
atp378
sL3148L
(S'_copy'
p379
(lp380
(L425776429L
L0L
(lp381
(lp382
tp383
atp384
sL2896L
(S'_facos'
p385
(lp386
(L3243887440L
L1650168448L
(lp387
(lp388
tp389
a(L3582075213L
L1650168448L
(lp390
(lp391
tp392
a(L3744145283L
L1650168448L
(lp393
(lp394
tp395
a(L1868153140L
L3438772250L
(lp396
(lp397
S'_mr_track'
p398
atp399
a(L3789397793L
L1859292256L
(lp400
L4294967294L
a(lp401
S'_fasin'
p402
aS'_fpi'
p403
aS'_flop'
p404
atp405
a(L63054096L
L0L
(lp406
(lp407
tp408
atp409
sL3156L
(S'_fcomp'
p410
(lp411
(L425776429L
L0L
(lp412
(lp413
tp414
atp415
sL3160L
(S'_fpmul'
p416
(lp417
(L425776429L
L0L
(lp418
(lp419
tp420
atp421
sL3164L
(S'_fpi'
p422
(lp423
(L425776429L
L0L
(lp424
(lp425
tp426
atp427
sL2656L
(S'_fcos'
p428
(lp429
(L1027983620L
L1912178190L
(lp430
(lp431
S'_copy'
p432
atp433
a(L2888590780L
L3438772250L
(lp434
(lp435
S'_size'
p436
atp437
a(L3096356244L
L2614424152L
(lp438
(lp439
tp440
a(L3783287853L
L1650168448L
(lp441
(lp442
tp443
a(L1868153140L
L3438772250L
(lp444
(lp445
S'_mr_track'
p446
atp447
a(L3813532589L
L1864484955L
(lp448
L4294967295L
a(lp449
S'_norm'
p450
aS'_fpmul'
p451
aS'_ftan'
p452
aS'_flop'
p453
aS'_insign'
p454
atp455
a(L214246776L
L3438772250L
(lp456
(lp457
S'_convert'
p458
atp459
atp460
sL3088L
(S'_flop'
p461
(lp462
(L425776429L
L0L
(lp463
(lp464
tp465
atp466
sL3172L
(S'_dconv'
p467
(lp468
(L425776429L
L0L
(lp469
(lp470
tp471
atp472
sL3136L
(S'_mr_track'
p473
(lp474
(L425776429L
L0L
(lp475
(lp476
tp477
atp478
sL3200L
(S'_convert'
p479
(lp480
(L425776429L
L0L
(lp481
(lp482
tp483
atp484
sL3180L
(S'_froot'
p485
(lp486
(L425776429L
L0L
(lp487
(lp488
tp489
atp490
sL3184L
(S'_mr_lent'
p491
(lp492
(L425776429L
L0L
(lp493
(lp494
tp495
atp496
sL3176L
(S'_fdsize'
p497
(lp498
(L425776429L
L0L
(lp499
(lp500
tp501
atp502
sL3188L
(S'_fconv'
p503
(lp504
(L425776429L
L0L
(lp505
(lp506
tp507
atp508
sL3192L
(S'_exsign'
p509
(lp510
(L425776429L
L0L
(lp511
(lp512
tp513
atp514
sL720L
(S'_norm'
p515
(lp516
(L378685210L
L1650168448L
(lp517
(lp518
tp519
a(L3441517590L
L0L
(lp520
(lp521
tp522
a(L452398705L
L3438772250L
(lp523
(lp524
S'_size'
p525
atp526
a(L3778689353L
L3438772250L
(lp527
(lp528
S'_negify'
p529
atp530
a(L3026854178L
L1504367735L
(lp531
L4294967295L
a(lp532
tp533
a(L4138166812L
L3606524018L
(lp534
(lp535
S'_fpi'
p536
aS'_fpmul'
p537
aS'_fcomp'
p538
atp539
a(L3690509742L
L1015000508L
(lp540
(lp541
S'_fpmul'
p542
aS'_fcomp'
p543
atp544
a(L2544216941L
L101928568L
(lp545
(lp546
S'_fdiv'
p547
aS'_ftrunc'
p548
aS'_fmul'
p549
aS'_fsub'
p550
atp551
a(L4154143077L
L434665910L
(lp552
(lp553
S'_fcomp'
p554
atp555
a(L3386043819L
L434665910L
(lp556
(lp557
S'_fsub'
p558
atp559
a(L2886385648L
L0L
(lp560
(lp561
tp562
a(L3490048736L
L1015000508L
(lp563
(lp564
S'_fpmul'
p565
aS'_fcomp'
p566
atp567
a(L1148785884L
L434665910L
(lp568
(lp569
S'_fsub'
p570
atp571
a(L2886385648L
L0L
(lp572
(lp573
tp574
a(L168392883L
L0L
(lp575
(lp576
tp577
atp578
ssS'fuzzydups'
p579
c__builtin__
set
p580
((lp581
tp582
Rp583
sS'stringdups'
p584
g580
((lp585
tp586
Rp587
sS'immediates'
p588
(dp589
L2147483649L
L1168L
ssS'formaldups'
p590
g580
((lp591
tp592
Rp593
sS'immediatedups'
p594
g580
((lp595
tp596
Rp597
sS'fuzzy'
p598
(dp599
L2953360896L
L2304L
sL3830114404L
L2896L
sL1476597862L
L0L
sL4246003893L
L1168L
sL2765670102L
L2656L
sL2828787415L
L1216L
sL188833436L
L2080L
sL1976383295L
L720L
ssS'strings'
p600
(dp601
sS'formal'
p602
(dp603
L1191300098L
L1216L
sL3142417894L
L2080L
sL4106715719L
L2656L
sL1520419975L
L2896L
sL954076706L
L2304L
sL1818152685L
L0L
sL4095779061L
L1168L
sL255899422L
L720L
ssb.