ccopy_reg
_reconstructor
p0
(c__main__
RizzoSignatures
p1
c__builtin__
object
p2
Ntp3
Rp4
(dp5
S'functions'
p6
(dp7
L12672L
(S'_power2'
p8
(lp9
(L3435777732L
L3872313376L
(lp10
(lp11
S'_copy'
p12
aS'_convert'
p13
atp14
a(L2471467403L
L3991344600L
(lp15
L2147483649L
a(lp16
tp17
a(L4152316397L
L1504367734L
(lp18
L4294967294L
a(lp19
tp20
a(L653184198L
L0L
(lp21
(lp22
tp23
a(L1419036881L
L434665910L
(lp24
(lp25
S'_modmult2'
p26
atp27
a(L2274493741L
L0L
(lp28
(lp29
tp30
a(L3170857555L
L434665910L
(lp31
(lp32
S'_modsquare2'
p33
atp34
a(L2222856904L
L0L
(lp35
(lp36
tp37
atp38
sL2880L
(S'_mr_bottom2'
p39
(lp40
(L1105411410L
L449713974L
(lp41
(lp42
S'_mr_mul2'
p43
aS'_mr_mul2'
p44
aS'_mr_mul2'
p45
atp46
atp47
sL14368L
(S'_trace2'
p48
(lp49
(L4279969511L
L4079538650L
(lp50
(lp51
S'_copy'
p52
atp53
a(L2344856923L
L3551412508L
(lp54
(lp55
S'_modsquare2'
p56
aS'_add2'
p57
atp58
a(L1660488244L
L0L
(lp59
(lp60
tp61
atp62
sL6160L
(S'_reduce2'
p63
(lp64
(L252632143L
L0L
(lp65
(lp66
tp67
a(L3840279295L
L3438772250L
(lp68
(lp69
S'_copy'
p70
atp71
a(L2548277000L
L1650168448L
(lp72
(lp73
tp74
a(L3815351891L
L3438772250L
(lp75
(lp76
S'_mr_berror'
p77
atp78
a(L3892423424L
L0L
(lp79
(lp80
tp81
a(L4186421076L
L0L
(lp82
(lp83
tp84
a(L3931355572L
L0L
(lp85
(lp86
tp87
a(L1080693667L
L0L
(lp88
(lp89
tp90
a(L3636990130L
L1504367728L
(lp91
L4294967292L
a(lp92
tp93
a(L3351849288L
L0L
(lp94
(lp95
tp96
a(L3403087470L
L3438772250L
(lp97
(lp98
S'_mr_lzero'
p99
atp100
a(L1199851875L
L0L
(lp101
(lp102
tp103
a(L1439599744L
L0L
(lp104
(lp105
tp106
a(L4136958809L
L0L
(lp107
(lp108
tp109
a(L58918141L
L0L
(lp110
(lp111
tp112
a(L3185340293L
L0L
(lp113
(lp114
tp115
a(L3493891889L
L0L
(lp116
(lp117
tp118
a(L1043374036L
L0L
(lp119
(lp120
tp121
a(L4077510813L
L0L
(lp122
(lp123
tp124
a(L209554475L
L0L
(lp125
(lp126
tp127
a(L1835504142L
L0L
(lp128
(lp129
tp130
a(L377502802L
L0L
(lp131
(lp132
tp133
a(L58918141L
L0L
(lp134
(lp135
tp136
a(L2484595630L
L0L
(lp137
(lp138
tp139
a(L1078693673L
L0L
(lp140
(lp141
tp142
a(L1843241611L
L0L
(lp143
(lp144
tp145
a(L4185856590L
L0L
(lp146
(lp147
tp148
a(L490921197L
L0L
(lp149
(lp150
tp151
a(L1931978934L
L0L
(lp152
(lp153
tp154
a(L877622288L
L0L
(lp155
(lp156
tp157
a(L4056731136L
L0L
(lp158
(lp159
tp160
a(L3041495966L
L0L
(lp161
(lp162
tp163
a(L2962597012L
L1504367728L
(lp164
L4294967292L
a(lp165
tp166
a(L1591732884L
L0L
(lp167
(lp168
tp169
a(L1424436599L
L0L
(lp170
(lp171
tp172
a(L636322586L
L0L
(lp173
(lp174
tp175
a(L877622288L
L0L
(lp176
(lp177
tp178
a(L4056731136L
L0L
(lp179
(lp180
tp181
a(L1076693679L
L0L
(lp182
(lp183
tp184
a(L4161300970L
L0L
(lp185
(lp186
tp187
a(L1748996352L
L0L
(lp188
(lp189
tp190
a(L3469480272L
L0L
(lp191
(lp192
tp193
a(L1038646922L
L0L
(lp194
(lp195
tp196
a(L2318440495L
L0L
(lp197
(lp198
tp199
a(L4056731136L
L0L
(lp200
(lp201
tp202
a(L1588490143L
L0L
(lp203
(lp204
tp205
a(L2426399172L
L0L
(lp206
(lp207
tp208
a(L997141611L
L0L
(lp209
(lp210
tp211
a(L3304902922L
L3438772250L
(lp212
(lp213
S'_mr_lzero'
p214
atp215
a(L1560495131L
L0L
(lp216
(lp217
tp218
a(L1454587642L
L0L
(lp219
(lp220
tp221
a(L877622288L
L0L
(lp222
(lp223
tp224
a(L3931355572L
L0L
(lp225
(lp226
tp227
a(L1592490131L
L0L
(lp228
(lp229
tp230
a(L2993337154L
L0L
(lp231
(lp232
tp233
a(L2807813792L
L0L
(lp234
(lp235
tp236
a(L3403087470L
L3438772250L
(lp237
(lp238
S'_mr_lzero'
p239
atp240
a(L3965904503L
L0L
(lp241
(lp242
tp243
a(L2763048960L
L0L
(lp244
(lp245
tp246
a(L73293810L
L0L
(lp247
(lp248
tp249
a(L4100230283L
L0L
(lp250
(lp251
tp252
a(L3523939892L
L0L
(lp253
(lp254
tp255
a(L975050223L
L0L
(lp256
(lp257
tp258
a(L1976738631L
L1504367728L
(lp259
L4294967292L
a(lp260
tp261
a(L641310595L
L2535188169L
(lp262
L134217727L
a(lp263
tp264
a(L445239410L
L0L
(lp265
(lp266
tp267
a(L4230656511L
L0L
(lp268
(lp269
tp270
a(L3779785276L
L0L
(lp271
(lp272
tp273
a(L4041027683L
L0L
(lp274
(lp275
tp276
a(L3203350797L
L0L
(lp277
(lp278
tp279
a(L4098086609L
L0L
(lp280
(lp281
tp282
a(L285934769L
L0L
(lp283
(lp284
tp285
a(L2998777086L
L0L
(lp286
(lp287
tp288
a(L2334454358L
L0L
(lp289
(lp290
tp291
a(L2911169379L
L0L
(lp292
(lp293
tp294
a(L877622288L
L0L
(lp295
(lp296
tp297
a(L2133188305L
L0L
(lp298
(lp299
tp300
a(L206604050L
L0L
(lp301
(lp302
tp303
a(L3096072838L
L1504367728L
(lp304
L4294967292L
a(lp305
tp306
a(L182459412L
L0L
(lp307
(lp308
tp309
a(L3403087470L
L3438772250L
(lp310
(lp311
S'_mr_lzero'
p312
atp313
a(L1620615717L
L0L
(lp314
(lp315
tp316
a(L1108750140L
L0L
(lp317
(lp318
tp319
a(L981737536L
L0L
(lp320
(lp321
tp322
a(L2525393579L
L0L
(lp323
(lp324
tp325
a(L1762157579L
L0L
(lp326
(lp327
tp328
a(L4117661841L
L0L
(lp329
(lp330
tp331
a(L2651865632L
L1504367728L
(lp332
L4294967292L
a(lp333
tp334
a(L1826485607L
L0L
(lp335
(lp336
tp337
a(L2302593930L
L0L
(lp338
(lp339
tp340
a(L3334184434L
L0L
(lp341
(lp342
tp343
a(L4281091956L
L0L
(lp344
(lp345
tp346
a(L4020362822L
L0L
(lp347
(lp348
tp349
a(L2106826184L
L0L
(lp350
(lp351
tp352
a(L4075582549L
L0L
(lp353
(lp354
tp355
a(L352619617L
L1504367728L
(lp356
L4294967292L
a(lp357
tp358
a(L1174736759L
L2535188169L
(lp359
L134217727L
a(lp360
tp361
a(L1863773145L
L0L
(lp362
(lp363
tp364
a(L217297145L
L0L
(lp365
(lp366
tp367
a(L603826788L
L0L
(lp368
(lp369
tp370
a(L2467669665L
L0L
(lp371
(lp372
tp373
a(L1592959434L
L0L
(lp374
(lp375
tp376
a(L84939532L
L1504367728L
(lp377
L4294967292L
a(lp378
tp379
a(L955059253L
L0L
(lp380
(lp381
tp382
a(L622699176L
L0L
(lp383
(lp384
tp385
a(L208488125L
L0L
(lp386
(lp387
tp388
a(L1246237650L
L3438772250L
(lp389
(lp390
S'_mr_lzero'
p391
atp392
a(L3867159177L
L0L
(lp393
(lp394
tp395
a(L1684381060L
L0L
(lp396
(lp397
tp398
a(L2586917401L
L0L
(lp399
(lp400
tp401
a(L4250028263L
L0L
(lp402
(lp403
tp404
a(L1851156421L
L0L
(lp405
(lp406
tp407
a(L3813369644L
L0L
(lp408
(lp409
tp410
a(L3403087470L
L3438772250L
(lp411
(lp412
S'_mr_lzero'
p413
atp414
a(L2108722200L
L0L
(lp415
(lp416
tp417
a(L258791008L
L3438772250L
(lp418
(lp419
S'_numbits'
p420
atp421
a(L1605971102L
L3992344605L
(lp422
L2147483679L
a(lp423
tp424
a(L498785857L
L1503367739L
(lp425
L4294967264L
a(lp426
tp427
a(L2687362575L
L0L
(lp428
(lp429
tp430
a(L532265013L
L3438772250L
(lp431
(lp432
S'_numbits'
p433
atp434
a(L3092645295L
L3043902310L
(lp435
(lp436
S'_copy'
p437
aS'_numbits'
p438
aS'_shiftleftbits'
p439
aS'_add2'
p440
aS'_numbits'
p441
atp442
a(L2020454145L
L0L
(lp443
(lp444
tp445
a(L1737313173L
L3992344605L
(lp446
L2147483679L
a(lp447
tp448
a(L3897535787L
L1503367739L
(lp449
L4294967264L
a(lp450
tp451
a(L2816039707L
L0L
(lp452
(lp453
tp454
a(L1177776544L
L3992344605L
(lp455
L2147483679L
a(lp456
tp457
a(L3897535787L
L1503367739L
(lp458
L4294967264L
a(lp459
tp460
a(L2431135239L
L3992344605L
(lp461
L2147483679L
a(lp462
tp463
a(L2479611895L
L1503367739L
(lp464
L4294967264L
a(lp465
tp466
a(L712638279L
L0L
(lp467
(lp468
tp469
a(L3452273453L
L0L
(lp470
(lp471
tp472
a(L1084977929L
L0L
(lp473
(lp474
tp475
a(L3825594365L
L0L
(lp476
(lp477
tp478
a(L2231825822L
L0L
(lp479
(lp480
tp481
a(L613562689L
L0L
(lp482
(lp483
tp484
a(L1377120895L
L0L
(lp485
(lp486
tp487
a(L156120915L
L0L
(lp488
(lp489
tp490
a(L541458567L
L0L
(lp491
(lp492
tp493
a(L1141282861L
L0L
(lp494
(lp495
tp496
a(L3235689630L
L0L
(lp497
(lp498
tp499
a(L156120915L
L0L
(lp500
(lp501
tp502
a(L1620154167L
L0L
(lp503
(lp504
tp505
a(L2497421896L
L0L
(lp506
(lp507
tp508
a(L103944710L
L0L
(lp509
(lp510
tp511
a(L3437809945L
L0L
(lp512
(lp513
tp514
a(L3040869046L
L0L
(lp515
(lp516
tp517
a(L1947505923L
L0L
(lp518
(lp519
tp520
a(L3417399394L
L0L
(lp521
(lp522
tp523
a(L3171447050L
L0L
(lp524
(lp525
tp526
a(L4005830564L
L0L
(lp527
(lp528
tp529
a(L2584840423L
L0L
(lp530
(lp531
tp532
a(L1141282861L
L0L
(lp533
(lp534
tp535
a(L2784433899L
L0L
(lp536
(lp537
tp538
a(L2314497385L
L0L
(lp539
(lp540
tp541
a(L1328896668L
L0L
(lp542
(lp543
tp544
a(L3022391402L
L0L
(lp545
(lp546
tp547
a(L977494558L
L0L
(lp548
(lp549
tp550
a(L2401980199L
L0L
(lp551
(lp552
tp553
a(L250306893L
L0L
(lp554
(lp555
tp556
a(L4199699654L
L0L
(lp557
(lp558
tp559
a(L1710392378L
L0L
(lp560
(lp561
tp562
a(L1726360506L
L0L
(lp563
(lp564
tp565
a(L2926999285L
L3438772250L
(lp566
(lp567
S'_mr_lzero'
p568
atp569
a(L2020454145L
L0L
(lp570
(lp571
tp572
atp573
sL12800L
(S'_inverse2'
p574
(lp575
(L2129299125L
L3438772250L
(lp576
(lp577
S'_size'
p578
atp579
a(L948849424L
L0L
(lp580
(lp581
tp582
a(L1052556842L
L2606411330L
(lp583
(lp584
S'_convert'
p585
aS'_zero'
p586
aS'_copy'
p587
aS'_copy'
p588
aS'_numbits'
p589
atp590
a(L3778473451L
L0L
(lp591
(lp592
tp593
a(L1071779743L
L0L
(lp594
(lp595
tp596
a(L3439482738L
L0L
(lp597
(lp598
tp599
a(L2508988305L
L1058105080L
(lp600
(lp601
tp602
a(L3816314487L
L3992344605L
(lp603
L2147483679L
a(lp604
tp605
a(L2479611895L
L1503367739L
(lp606
L4294967264L
a(lp607
tp608
a(L1718706007L
L0L
(lp609
(lp610
tp611
a(L4116876240L
L3992344605L
(lp612
L2147483679L
a(lp613
tp614
a(L3897535787L
L1503367739L
(lp615
L4294967264L
a(lp616
tp617
a(L1339784944L
L1650168448L
(lp618
(lp619
tp620
a(L377834298L
L0L
(lp621
(lp622
tp623
a(L1670350985L
L0L
(lp624
(lp625
tp626
a(L1594984136L
L0L
(lp627
(lp628
tp629
a(L199488025L
L0L
(lp630
(lp631
tp632
a(L3866118540L
L0L
(lp633
(lp634
tp635
a(L335165150L
L1650168448L
(lp636
(lp637
tp638
a(L501901873L
L0L
(lp639
(lp640
tp641
a(L836723414L
L0L
(lp642
(lp643
tp644
a(L1319299609L
L0L
(lp645
(lp646
tp647
a(L115702883L
L0L
(lp648
(lp649
tp650
a(L1620367955L
L2669712224L
(lp651
L4294967292L
a(lp652
tp653
a(L2684651598L
L0L
(lp654
(lp655
tp656
a(L1795816891L
L1650168448L
(lp657
(lp658
tp659
a(L1206107689L
L0L
(lp660
(lp661
tp662
a(L3514173515L
L0L
(lp663
(lp664
tp665
a(L3323484699L
L3991344601L
(lp666
L2147483648L
a(lp667
tp668
a(L1777261961L
L3992344605L
(lp669
L2147483679L
a(lp670
tp671
a(L3897535787L
L1503367739L
(lp672
L4294967264L
a(lp673
tp674
a(L2659414894L
L0L
(lp675
(lp676
tp677
a(L3937226773L
L0L
(lp678
(lp679
tp680
a(L2746734798L
L0L
(lp681
(lp682
tp683
a(L3684939149L
L0L
(lp684
(lp685
tp686
a(L3123776348L
L1650168448L
(lp687
(lp688
tp689
a(L2382610273L
L0L
(lp690
(lp691
tp692
a(L1114759657L
L0L
(lp693
(lp694
tp695
a(L2635043499L
L0L
(lp696
(lp697
tp698
a(L1938015955L
L0L
(lp699
(lp700
tp701
a(L2078865426L
L0L
(lp702
(lp703
tp704
a(L741097464L
L1650168448L
(lp705
(lp706
tp707
a(L3249209674L
L0L
(lp708
(lp709
tp710
a(L2213860460L
L0L
(lp711
(lp712
tp713
a(L3989102219L
L0L
(lp714
(lp715
tp716
a(L2494419352L
L0L
(lp717
(lp718
tp719
a(L484299937L
L2669712224L
(lp720
L4294967292L
a(lp721
tp722
a(L2515154416L
L0L
(lp723
(lp724
tp725
a(L1795816891L
L1650168448L
(lp726
(lp727
tp728
a(L1699279733L
L0L
(lp729
(lp730
tp731
a(L2010219186L
L0L
(lp732
(lp733
tp734
a(L78162186L
L0L
(lp735
(lp736
tp737
a(L2799304796L
L1650168448L
(lp738
(lp739
tp740
a(L1731581587L
L0L
(lp741
(lp742
tp743
a(L2517573456L
L3438772250L
(lp744
(lp745
S'_copy'
p746
atp747
atp748
sL10560L
(S'_sqroot2'
p749
(lp750
(L3919562685L
L1650168448L
(lp751
(lp752
tp753
a(L1649077583L
L3438772250L
(lp754
(lp755
S'_mr_berror'
p756
atp757
a(L207424176L
L0L
(lp758
(lp759
tp760
a(L2059997400L
L3991344600L
(lp761
L2147483649L
a(lp762
tp763
a(L2174063628L
L1504367734L
(lp764
L4294967294L
a(lp765
tp766
a(L4283476518L
L0L
(lp767
(lp768
tp769
a(L2224666123L
L3991344600L
(lp770
L2147483649L
a(lp771
tp772
a(L2174063628L
L1504367734L
(lp773
L4294967294L
a(lp774
tp775
a(L4283476518L
L0L
(lp776
(lp777
tp778
a(L2069597683L
L3991344600L
(lp779
L2147483649L
a(lp780
tp781
a(L2174063628L
L1504367734L
(lp782
L4294967294L
a(lp783
tp784
a(L4283476518L
L0L
(lp785
(lp786
tp787
a(L132403871L
L3991344600L
(lp788
L2147483649L
a(lp789
tp790
a(L4152316397L
L1504367734L
(lp791
L4294967294L
a(lp792
tp793
a(L263803138L
L0L
(lp794
(lp795
tp796
a(L3249209674L
L0L
(lp797
(lp798
tp799
a(L4285911778L
L3991344600L
(lp800
L2147483649L
a(lp801
tp802
a(L4152316397L
L1504367734L
(lp803
L4294967294L
a(lp804
tp805
a(L2772121965L
L0L
(lp806
(lp807
tp808
a(L2612878561L
L3991344600L
(lp809
L2147483649L
a(lp810
tp811
a(L4152316397L
L1504367734L
(lp812
L4294967294L
a(lp813
tp814
a(L263803138L
L0L
(lp815
(lp816
tp817
a(L1864199110L
L1912178190L
(lp818
(lp819
S'_copy'
p820
atp821
a(L3194397811L
L1912178190L
(lp822
(lp823
S'_modsquare2'
p824
atp825
a(L3310965661L
L0L
(lp826
(lp827
tp828
a(L1636934866L
L0L
(lp829
(lp830
tp831
a(L3725990392L
L1912178190L
(lp832
(lp833
S'_copy'
p834
atp835
a(L3087758182L
L0L
(lp836
(lp837
tp838
a(L3851332449L
L3438772250L
(lp839
(lp840
S'_zero'
p841
atp842
a(L2330600194L
L0L
(lp843
(lp844
tp845
a(L2338256071L
L0L
(lp846
(lp847
tp848
a(L3646539799L
L1371514080L
(lp849
(lp850
tp851
a(L835235353L
L1371514080L
(lp852
(lp853
tp854
a(L3053472719L
L0L
(lp855
(lp856
tp857
a(L1712191863L
L0L
(lp858
(lp859
tp860
a(L2145235517L
L3438772250L
(lp861
(lp862
S'_mr_lzero'
p863
atp864
a(L2335612853L
L3992344605L
(lp865
L2147483679L
a(lp866
tp867
a(L3897535787L
L1503367739L
(lp868
L4294967264L
a(lp869
tp870
a(L1526838568L
L0L
(lp871
(lp872
tp873
a(L3935676057L
L3992344605L
(lp874
L2147483679L
a(lp875
tp876
a(L3897535787L
L1503367739L
(lp877
L4294967264L
a(lp878
tp879
a(L1211140326L
L3992344605L
(lp880
L2147483679L
a(lp881
tp882
a(L3897535787L
L1503367739L
(lp883
L4294967264L
a(lp884
tp885
a(L90223327L
L0L
(lp886
(lp887
tp888
a(L648738317L
L0L
(lp889
(lp890
tp891
a(L3093576862L
L0L
(lp892
(lp893
tp894
a(L831446957L
L1371514080L
(lp895
(lp896
tp897
a(L1204417388L
L1371514080L
(lp898
(lp899
tp900
a(L4143574581L
L0L
(lp901
(lp902
tp903
a(L588364586L
L0L
(lp904
(lp905
tp906
a(L1059327129L
L0L
(lp907
(lp908
tp909
a(L1429915191L
L0L
(lp910
(lp911
tp912
a(L1950240026L
L0L
(lp913
(lp914
tp915
a(L1148768924L
L0L
(lp916
(lp917
tp918
a(L3110931013L
L0L
(lp919
(lp920
tp921
a(L2711630507L
L0L
(lp922
(lp923
tp924
a(L1275284645L
L0L
(lp925
(lp926
tp927
a(L3061439488L
L0L
(lp928
(lp929
tp930
a(L1701237896L
L0L
(lp931
(lp932
tp933
a(L3133034175L
L0L
(lp934
(lp935
tp936
a(L38071729L
L0L
(lp937
(lp938
tp939
a(L2922391817L
L0L
(lp940
(lp941
tp942
a(L552711353L
L0L
(lp943
(lp944
tp945
a(L3897906948L
L0L
(lp946
(lp947
tp948
a(L3826236372L
L3438772250L
(lp949
(lp950
S'_mr_lzero'
p951
atp952
a(L3310965661L
L0L
(lp953
(lp954
tp955
atp956
sL4800L
(S'_multiply2'
p957
(lp958
(L648106658L
L1650168448L
(lp959
(lp960
tp961
a(L705454067L
L0L
(lp962
(lp963
tp964
a(L2142236876L
L0L
(lp965
(lp966
tp967
a(L1579570303L
L0L
(lp968
(lp969
tp970
a(L2932617547L
L3438772250L
(lp971
(lp972
S'_zero'
p973
atp974
a(L1351465524L
L0L
(lp975
(lp976
tp977
a(L3809744502L
L0L
(lp978
(lp979
tp980
a(L759075702L
L0L
(lp981
(lp982
tp983
a(L3018725185L
L3232908900L
(lp984
(lp985
S'_karmul2'
p986
aS'_mr_lzero'
p987
aS'_mr_lzero'
p988
aS'_copy'
p989
atp990
a(L1904727445L
L0L
(lp991
(lp992
tp993
a(L1048240896L
L0L
(lp994
(lp995
tp996
a(L524138628L
L0L
(lp997
(lp998
tp999
a(L3330862524L
L0L
(lp1000
(lp1001
tp1002
a(L2550761905L
L3438772250L
(lp1003
(lp1004
S'_mr_mul2'
p1005
atp1006
a(L772626541L
L0L
(lp1007
(lp1008
tp1009
a(L3755606375L
L0L
(lp1010
(lp1011
tp1012
a(L4013669509L
L1354249480L
(lp1013
(lp1014
S'_mr_lzero'
p1015
aS'_copy'
p1016
atp1017
a(L1152007108L
L3438772250L
(lp1018
(lp1019
S'_zero'
p1020
atp1021
a(L3471613356L
L3438772250L
(lp1022
(lp1023
S'_zero'
p1024
atp1025
atp1026
sL15136L
(S'_gf2m_dotprod'
p1027
(lp1028
(L2277016023L
L2640012870L
(lp1029
(lp1030
S'_zero'
p1031
atp1032
a(L2491194677L
L0L
(lp1033
(lp1034
tp1035
a(L543917178L
L1015000508L
(lp1036
(lp1037
S'_multiply2'
p1038
aS'_add2'
p1039
atp1040
a(L1746581689L
L0L
(lp1041
(lp1042
tp1043
a(L566932427L
L4255254916L
(lp1044
(lp1045
S'_reduce2'
p1046
aS'_copy'
p1047
atp1048
atp1049
sL10016L
(S'_modsquare2'
p1050
(lp1051
(L2540079478L
L3606524018L
(lp1052
(lp1053
S'_square2'
p1054
aS'_reduce2'
p1055
aS'_copy'
p1056
atp1057
atp1058
sL2416L
(S'_mr_mul2'
p1059
(lp1060
(L1747775318L
L0L
(lp1061
(lp1062
tp1063
atp1064
sL16164L
(S'_zero'
p1065
(lp1066
(L425776429L
L0L
(lp1067
(lp1068
tp1069
atp1070
sL15328L
(S'_prepare_basis'
p1071
(lp1072
(L4221237127L
L1650168448L
(lp1073
(lp1074
tp1075
a(L2064821061L
L0L
(lp1076
(lp1077
tp1078
a(L3333335386L
L0L
(lp1079
(lp1080
tp1081
a(L1037829093L
L0L
(lp1082
(lp1083
tp1084
a(L2724718565L
L0L
(lp1085
(lp1086
tp1087
a(L4209792642L
L0L
(lp1088
(lp1089
tp1090
a(L216270432L
L0L
(lp1091
(lp1092
tp1093
a(L3093390645L
L0L
(lp1094
(lp1095
tp1096
a(L920739072L
L0L
(lp1097
(lp1098
tp1099
a(L2622929612L
L1650168448L
(lp1100
(lp1101
tp1102
a(L3954176L
L1650168448L
(lp1103
(lp1104
tp1105
a(L520110351L
L1912178190L
(lp1106
(lp1107
S'_mr_track'
p1108
atp1109
a(L1323506521L
L0L
(lp1110
(lp1111
tp1112
a(L3057461014L
L0L
(lp1113
(lp1114
tp1115
a(L1646800755L
L0L
(lp1116
(lp1117
tp1118
a(L1612742982L
L0L
(lp1119
(lp1120
tp1121
a(L1503415094L
L1979811900L
(lp1122
(lp1123
S'_zero'
p1124
aS'_convert'
p1125
atp1126
a(L2833915272L
L0L
(lp1127
(lp1128
tp1129
a(L1664513059L
L3992344605L
(lp1130
L2147483679L
a(lp1131
tp1132
a(L3897535787L
L1503367739L
(lp1133
L4294967264L
a(lp1134
tp1135
a(L746162352L
L1182703333L
(lp1136
L2147483679L
a(lp1137
tp1138
a(L3897535787L
L1503367739L
(lp1139
L4294967264L
a(lp1140
tp1141
a(L3639060713L
L0L
(lp1142
(lp1143
tp1144
a(L3388598452L
L1182703333L
(lp1145
L2147483679L
a(lp1146
tp1147
a(L3897535787L
L1503367739L
(lp1148
L4294967264L
a(lp1149
tp1150
a(L825819287L
L2409147413L
(lp1151
L2147483679L
a(lp1152
tp1153
a(L3897535787L
L1503367739L
(lp1154
L4294967264L
a(lp1155
tp1156
a(L2265345995L
L0L
(lp1157
(lp1158
tp1159
a(L2567123691L
L1650168448L
(lp1160
(lp1161
tp1162
a(L1893020282L
L0L
(lp1163
(lp1164
tp1165
a(L1228841227L
L609169042L
(lp1166
(lp1167
S'_zero'
p1168
atp1169
a(L1768164246L
L101928568L
(lp1170
(lp1171
S'_modsquare2'
p1172
aS'_incr2'
p1173
aS'_gcd2'
p1174
aS'_size'
p1175
atp1176
a(L3879902574L
L0L
(lp1177
(lp1178
tp1179
a(L2389947221L
L1650168448L
(lp1180
(lp1181
tp1182
a(L4143777380L
L0L
(lp1183
(lp1184
tp1185
a(L1479073371L
L0L
(lp1186
(lp1187
tp1188
a(L3237093338L
L1912178190L
(lp1189
(lp1190
S'_mr_berror'
p1191
atp1192
a(L3221251116L
L0L
(lp1193
(lp1194
tp1195
atp1196
sL16168L
(S'_mr_lzero'
p1197
(lp1198
(L425776429L
L0L
(lp1199
(lp1200
tp1201
atp1202
sL10384L
(S'_modmult2'
p1203
(lp1204
(L1177427108L
L0L
(lp1205
(lp1206
tp1207
a(L3242373771L
L0L
(lp1208
(lp1209
tp1210
a(L642670493L
L0L
(lp1211
(lp1212
tp1213
a(L2633948221L
L3438772250L
(lp1214
(lp1215
S'_modsquare2'
p1216
atp1217
a(L3634168820L
L0L
(lp1218
(lp1219
tp1220
a(L204368783L
L3438772250L
(lp1221
(lp1222
S'_zero'
p1223
atp1224
a(L1303820903L
L0L
(lp1225
(lp1226
tp1227
a(L2922431644L
L0L
(lp1228
(lp1229
tp1230
a(L2633948221L
L3438772250L
(lp1231
(lp1232
S'_copy'
p1233
atp1234
a(L58693926L
L3606524018L
(lp1235
(lp1236
S'_multiply2'
p1237
aS'_reduce2'
p1238
aS'_copy'
p1239
atp1240
a(L1315996136L
L3438772250L
(lp1241
(lp1242
S'_zero'
p1243
atp1244
atp1245
sL14608L
(S'_halftrace2'
p1246
(lp1247
(L2760524042L
L2406147420L
(lp1248
L2147483649L
a(lp1249
tp1250
a(L3125598927L
L1504367734L
(lp1251
L4294967294L
a(lp1252
tp1253
a(L653184198L
L0L
(lp1254
(lp1255
tp1256
a(L3972734206L
L1354249480L
(lp1257
(lp1258
S'_copy'
p1259
aS'_copy'
p1260
atp1261
a(L179779481L
L0L
(lp1262
(lp1263
tp1264
a(L1044391615L
L2332948430L
(lp1265
(lp1266
S'_modsquare2'
p1267
aS'_modsquare2'
p1268
aS'_add2'
p1269
atp1270
a(L1994012262L
L0L
(lp1271
(lp1272
tp1273
atp1274
sL16176L
(S'_size'
p1275
(lp1276
(L425776429L
L0L
(lp1277
(lp1278
tp1279
atp1280
sL14736L
(S'_quad2'
p1281
(lp1282
(L707781099L
L2925367346L
(lp1283
L2147483649L
a(lp1284
S'_copy'
p1285
atp1286
a(L3125598927L
L1504367734L
(lp1287
L4294967294L
a(lp1288
tp1289
a(L1303820903L
L0L
(lp1290
(lp1291
tp1292
a(L1595475023L
L3438772250L
(lp1293
(lp1294
S'_halftrace2'
p1295
atp1296
a(L2195772490L
L434665910L
(lp1297
(lp1298
S'_zero'
p1299
atp1300
a(L3018290106L
L1065842054L
(lp1301
(lp1302
S'_rand2'
p1303
aS'_zero'
p1304
aS'_copy'
p1305
atp1306
a(L1170673578L
L0L
(lp1307
(lp1308
tp1309
a(L1872951733L
L2824985858L
(lp1310
(lp1311
S'_modsquare2'
p1312
aS'_modmult2'
p1313
aS'_modsquare2'
p1314
aS'_add2'
p1315
aS'_add2'
p1316
atp1317
a(L1845773996L
L434665910L
(lp1318
(lp1319
S'_size'
p1320
atp1321
a(L3488849811L
L101928568L
(lp1322
(lp1323
S'_copy'
p1324
aS'_modsquare2'
p1325
aS'_add2'
p1326
aS'_mr_compare'
p1327
atp1328
atp1329
sL16180L
(S'_mr_berror'
p1330
(lp1331
(L425776429L
L0L
(lp1332
(lp1333
tp1334
atp1335
sL16184L
(S'_convert'
p1336
(lp1337
(L425776429L
L0L
(lp1338
(lp1339
tp1340
atp1341
sL5760L
(S'_remain2'
p1342
(lp1343
(L3988778235L
L1354249480L
(lp1344
(lp1345
S'_numbits'
p1346
aS'_numbits'
p1347
atp1348
a(L64115251L
L3232908900L
(lp1349
(lp1350
S'_copy'
p1351
aS'_shiftleftbits'
p1352
aS'_add2'
p1353
aS'_numbits'
p1354
atp1355
a(L1743730284L
L0L
(lp1356
(lp1357
tp1358
atp1359
sL9920L
(S'_incr2'
p1360
(lp1361
(L1539571294L
L0L
(lp1362
(lp1363
tp1364
a(L3840279295L
L3438772250L
(lp1365
(lp1366
S'_copy'
p1367
atp1368
a(L559659356L
L0L
(lp1369
(lp1370
tp1371
a(L3412546143L
L0L
(lp1372
(lp1373
tp1374
a(L4163573868L
L0L
(lp1375
(lp1376
tp1377
a(L3059066991L
L0L
(lp1378
(lp1379
tp1380
a(L1687658169L
L0L
(lp1381
(lp1382
tp1383
a(L2782274436L
L0L
(lp1384
(lp1385
tp1386
a(L1356022597L
L0L
(lp1387
(lp1388
tp1389
atp1390
sL5888L
(S'_shiftleftbits'
p1391
(lp1392
(L663410050L
L3992344605L
(lp1393
L2147483679L
a(lp1394
tp1395
a(L2616579062L
L1503367739L
(lp1396
L4294967264L
a(lp1397
tp1398
a(L4135471338L
L0L
(lp1399
(lp1400
tp1401
a(L3705841476L
L0L
(lp1402
(lp1403
tp1404
a(L4282458474L
L0L
(lp1405
(lp1406
tp1407
a(L3318504273L
L0L
(lp1408
(lp1409
tp1410
a(L584637240L
L0L
(lp1411
(lp1412
tp1413
a(L181113695L
L0L
(lp1414
(lp1415
tp1416
a(L875545168L
L0L
(lp1417
(lp1418
tp1419
a(L1421542190L
L0L
(lp1420
(lp1421
tp1422
a(L2038704287L
L0L
(lp1423
(lp1424
tp1425
a(L2963796106L
L0L
(lp1426
(lp1427
tp1428
a(L3133143345L
L0L
(lp1429
(lp1430
tp1431
a(L3638389938L
L0L
(lp1432
(lp1433
tp1434
a(L2191614044L
L0L
(lp1435
(lp1436
tp1437
a(L3353810596L
L0L
(lp1438
(lp1439
tp1440
a(L4213123107L
L0L
(lp1441
(lp1442
tp1443
a(L2133592750L
L0L
(lp1444
(lp1445
tp1446
a(L2512028537L
L1504367728L
(lp1447
L4294967292L
a(lp1448
tp1449
a(L1022053005L
L0L
(lp1450
(lp1451
tp1452
a(L3901575793L
L0L
(lp1453
(lp1454
tp1455
atp1456
sL16160L
(S'_copy'
p1457
(lp1458
(L425776429L
L0L
(lp1459
(lp1460
tp1461
atp1462
sL192L
(S'_degree2'
p1463
(lp1464
(L2849602463L
L3438772250L
(lp1465
(lp1466
S'_numbits'
p1467
atp1468
atp1469
sL3808L
(S'_mr_bottom5'
p1470
(lp1471
(L1535141695L
L2850285698L
(lp1472
(lp1473
S'_mr_mul2'
p1474
aS'_mr_mul2'
p1475
aS'_mr_mul2'
p1476
aS'_mr_mul2'
p1477
aS'_mr_mul2'
p1478
aS'_mr_mul2'
p1479
aS'_mr_mul2'
p1480
aS'_mr_mul2'
p1481
aS'_mr_mul2'
p1482
aS'_mr_mul2'
p1483
aS'_mr_mul2'
p1484
aS'_mr_mul2'
p1485
aS'_mr_mul2'
p1486
atp1487
atp1488
sL16196L
(S'_mr_track'
p1489
(lp1490
(L425776429L
L0L
(lp1491
(lp1492
tp1493
atp1494
sL1360L
(S'_karmul2_poly_upper'
p1495
(lp1496
(L2087091504L
L0L
(lp1497
(lp1498
tp1499
a(L788172508L
L0L
(lp1500
(lp1501
tp1502
a(L3269211153L
L0L
(lp1503
(lp1504
tp1505
a(L1749189566L
L1354249480L
(lp1506
(lp1507
S'_add2'
p1508
aS'_add2'
p1509
atp1510
a(L319502112L
L1354249480L
(lp1511
(lp1512
S'_karmul2_poly'
p1513
aS'_karmul2_poly'
p1514
atp1515
a(L3844384975L
L0L
(lp1516
(lp1517
tp1518
a(L2061731332L
L0L
(lp1519
(lp1520
tp1521
a(L24975274L
L3438772250L
(lp1522
(lp1523
S'_add2'
p1524
atp1525
a(L2155923954L
L0L
(lp1526
(lp1527
tp1528
a(L1504103424L
L0L
(lp1529
(lp1530
tp1531
a(L1440709014L
L0L
(lp1532
(lp1533
tp1534
a(L626448970L
L1354249480L
(lp1535
(lp1536
S'_add2'
p1537
aS'_add2'
p1538
atp1539
a(L3240958879L
L0L
(lp1540
(lp1541
tp1542
a(L4282458474L
L0L
(lp1543
(lp1544
tp1545
a(L3889065246L
L0L
(lp1546
(lp1547
tp1548
a(L1489663026L
L1354249480L
(lp1549
(lp1550
S'_add2'
p1551
aS'_add2'
p1552
atp1553
a(L3287654135L
L0L
(lp1554
(lp1555
tp1556
atp1557
sL16192L
(S'_mr_compare'
p1558
(lp1559
(L425776429L
L0L
(lp1560
(lp1561
tp1562
atp1563
sL1776L
(S'_karmul2'
p1564
(lp1565
(L639491386L
L0L
(lp1566
(lp1567
tp1568
a(L2772121965L
L0L
(lp1569
(lp1570
tp1571
a(L1562941892L
L3438772250L
(lp1572
(lp1573
S'_mr_mul2'
p1574
atp1575
a(L1946256552L
L0L
(lp1576
(lp1577
tp1578
a(L3630898319L
L3438772250L
(lp1579
(lp1580
S'_mr_bottom2'
p1581
atp1582
a(L3271027031L
L0L
(lp1583
(lp1584
tp1585
a(L3630898319L
L3438772250L
(lp1586
(lp1587
S'_mr_bottom3'
p1588
atp1589
a(L3988186698L
L0L
(lp1590
(lp1591
tp1592
a(L3630898319L
L3438772250L
(lp1593
(lp1594
S'_mr_bottom4'
p1595
atp1596
a(L3756884369L
L0L
(lp1597
(lp1598
tp1599
a(L3630898319L
L3438772250L
(lp1600
(lp1601
S'_mr_bottom5'
p1602
atp1603
a(L4097069676L
L3991344600L
(lp1604
L2147483649L
a(lp1605
tp1606
a(L3125598927L
L1504367734L
(lp1607
L4294967294L
a(lp1608
tp1609
a(L3246209545L
L0L
(lp1610
(lp1611
tp1612
a(L2429913173L
L0L
(lp1613
(lp1614
tp1615
a(L3101197243L
L0L
(lp1616
(lp1617
tp1618
a(L2679236913L
L0L
(lp1619
(lp1620
tp1621
a(L2545001501L
L0L
(lp1622
(lp1623
tp1624
a(L2994932409L
L0L
(lp1625
(lp1626
tp1627
a(L1416465324L
L0L
(lp1628
(lp1629
tp1630
a(L593338313L
L0L
(lp1631
(lp1632
tp1633
a(L1891444379L
L0L
(lp1634
(lp1635
tp1636
a(L105611037L
L0L
(lp1637
(lp1638
tp1639
a(L1077357473L
L0L
(lp1640
(lp1641
tp1642
a(L1545841537L
L1354249480L
(lp1643
(lp1644
S'_karmul2'
p1645
aS'_karmul2'
p1646
atp1647
a(L4282097304L
L0L
(lp1648
(lp1649
tp1650
a(L3550557742L
L0L
(lp1651
(lp1652
tp1653
a(L4108176948L
L3438772250L
(lp1654
(lp1655
S'_karmul2'
p1656
atp1657
a(L2151923942L
L0L
(lp1658
(lp1659
tp1660
a(L446167051L
L0L
(lp1661
(lp1662
tp1663
a(L3986463759L
L0L
(lp1664
(lp1665
tp1666
a(L606717540L
L0L
(lp1667
(lp1668
tp1669
a(L1100548676L
L0L
(lp1670
(lp1671
tp1672
a(L1935399440L
L0L
(lp1673
(lp1674
tp1675
atp1676
sL3296L
(S'_mr_bottom4'
p1677
(lp1678
(L2002254999L
L601341786L
(lp1679
(lp1680
S'_mr_mul2'
p1681
aS'_mr_mul2'
p1682
aS'_mr_mul2'
p1683
aS'_mr_mul2'
p1684
aS'_mr_mul2'
p1685
aS'_mr_mul2'
p1686
aS'_mr_mul2'
p1687
aS'_mr_mul2'
p1688
aS'_mr_mul2'
p1689
atp1690
atp1691
sL5200L
(S'_add2'
p1692
(lp1693
(L3125479651L
L0L
(lp1694
(lp1695
tp1696
a(L3696090686L
L3438772250L
(lp1697
(lp1698
S'_zero'
p1699
atp1700
a(L215713123L
L0L
(lp1701
(lp1702
tp1703
a(L2592655244L
L3438772250L
(lp1704
(lp1705
S'_copy'
p1706
atp1707
a(L1402788093L
L0L
(lp1708
(lp1709
tp1710
a(L2779220899L
L3438772250L
(lp1711
(lp1712
S'_copy'
p1713
atp1714
a(L3439316198L
L0L
(lp1715
(lp1716
tp1717
a(L2001759450L
L0L
(lp1718
(lp1719
tp1720
a(L3008601252L
L0L
(lp1721
(lp1722
tp1723
a(L1400788076L
L0L
(lp1724
(lp1725
tp1726
a(L3989644169L
L0L
(lp1727
(lp1728
tp1729
a(L1144085869L
L0L
(lp1730
(lp1731
tp1732
a(L4123375033L
L0L
(lp1733
(lp1734
tp1735
a(L1894860458L
L3438772250L
(lp1736
(lp1737
S'_mr_lzero'
p1738
atp1739
a(L3968136441L
L0L
(lp1740
(lp1741
tp1742
a(L3008601252L
L0L
(lp1743
(lp1744
tp1745
a(L1400788076L
L0L
(lp1746
(lp1747
tp1748
a(L1119924479L
L0L
(lp1749
(lp1750
tp1751
a(L3212751258L
L0L
(lp1752
(lp1753
tp1754
a(L1775608293L
L0L
(lp1755
(lp1756
tp1757
a(L1641916271L
L0L
(lp1758
(lp1759
tp1760
a(L359675863L
L0L
(lp1761
(lp1762
tp1763
a(L3249591355L
L0L
(lp1764
(lp1765
tp1766
a(L2201110054L
L3438772250L
(lp1767
(lp1768
S'_mr_lzero'
p1769
atp1770
a(L1743730284L
L0L
(lp1771
(lp1772
tp1773
atp1774
sL3008L
(S'_mr_bottom3'
p1775
(lp1776
(L3124278954L
L3095270240L
(lp1777
(lp1778
S'_mr_mul2'
p1779
aS'_mr_mul2'
p1780
aS'_mr_mul2'
p1781
aS'_mr_mul2'
p1782
aS'_mr_mul2'
p1783
aS'_mr_mul2'
p1784
atp1785
atp1786
sL14480L
(S'_rand2'
p1787
(lp1788
(L983411236L
L1912178190L
(lp1789
(lp1790
S'_zero'
p1791
atp1792
a(L3008608916L
L3438772250L
(lp1793
(lp1794
S'_brand'
p1795
atp1796
a(L1423541395L
L1354249480L
(lp1797
(lp1798
S'_mr_lzero'
p1799
aS'_reduce2'
p1800
atp1801
atp1802
sL16188L
(S'_brand'
p1803
(lp1804
(L425776429L
L0L
(lp1805
(lp1806
tp1807
atp1808
sL208L
(S'_numbits'
p1809
(lp1810
(L1174743018L
L3991344601L
(lp1811
L2147483648L
a(lp1812
tp1813
a(L133851771L
L0L
(lp1814
(lp1815
tp1816
a(L1656077287L
L3991344601L
(lp1817
L2147483648L
a(lp1818
tp1819
a(L436952543L
L0L
(lp1820
(lp1821
tp1822
a(L1356022597L
L0L
(lp1823
(lp1824
tp1825
atp1826
sL14576L
(S'_parity2'
p1827
(lp1828
(L3770868333L
L0L
(lp1829
(lp1830
tp1831
a(L1310365671L
L0L
(lp1832
(lp1833
tp1834
a(L1439218681L
L0L
(lp1835
(lp1836
tp1837
atp1838
sL272L
(S'_karmul2_poly'
p1839
(lp1840
(L2568864377L
L0L
(lp1841
(lp1842
tp1843
a(L2759681915L
L1354249480L
(lp1844
(lp1845
S'_modmult2'
p1846
aS'_zero'
p1847
atp1848
a(L1946256552L
L0L
(lp1849
(lp1850
tp1851
a(L2373600909L
L3126497328L
(lp1852
(lp1853
S'_modmult2'
p1854
aS'_modmult2'
p1855
aS'_add2'
p1856
aS'_add2'
p1857
aS'_modmult2'
p1858
aS'_add2'
p1859
aS'_add2'
p1860
aS'_zero'
p1861
atp1862
a(L3271027031L
L0L
(lp1863
(lp1864
tp1865
a(L1787535271L
L934149416L
(lp1866
(lp1867
S'_modmult2'
p1868
aS'_modmult2'
p1869
aS'_modmult2'
p1870
aS'_add2'
p1871
aS'_add2'
p1872
aS'_modmult2'
p1873
aS'_add2'
p1874
aS'_add2'
p1875
aS'_add2'
p1876
aS'_add2'
p1877
aS'_modmult2'
p1878
aS'_add2'
p1879
aS'_add2'
p1880
aS'_add2'
p1881
aS'_add2'
p1882
aS'_modmult2'
p1883
aS'_add2'
p1884
aS'_add2'
p1885
aS'_add2'
p1886
aS'_zero'
p1887
atp1888
a(L4097069676L
L3991344600L
(lp1889
L2147483649L
a(lp1890
tp1891
a(L3125598927L
L1504367734L
(lp1892
L4294967294L
a(lp1893
tp1894
a(L3246209545L
L0L
(lp1895
(lp1896
tp1897
a(L3404981846L
L0L
(lp1898
(lp1899
tp1900
a(L171818774L
L0L
(lp1901
(lp1902
tp1903
a(L2887210865L
L0L
(lp1904
(lp1905
tp1906
a(L1482489294L
L0L
(lp1907
(lp1908
tp1909
a(L111702871L
L0L
(lp1910
(lp1911
tp1912
a(L1678192277L
L1354249480L
(lp1913
(lp1914
S'_copy'
p1915
aS'_copy'
p1916
atp1917
a(L2178943123L
L0L
(lp1918
(lp1919
tp1920
a(L3260177516L
L0L
(lp1921
(lp1922
tp1923
a(L705553989L
L0L
(lp1924
(lp1925
tp1926
a(L1440938755L
L1354249480L
(lp1927
(lp1928
S'_add2'
p1929
aS'_add2'
p1930
atp1931
a(L1495562101L
L0L
(lp1932
(lp1933
tp1934
a(L2997241369L
L1354249480L
(lp1935
(lp1936
S'_karmul2_poly'
p1937
aS'_karmul2_poly'
p1938
atp1939
a(L329333523L
L0L
(lp1940
(lp1941
tp1942
a(L874312586L
L0L
(lp1943
(lp1944
tp1945
a(L2860986390L
L3438772250L
(lp1946
(lp1947
S'_add2'
p1948
atp1949
a(L3151373830L
L0L
(lp1950
(lp1951
tp1952
a(L2718109350L
L3438772250L
(lp1953
(lp1954
S'_karmul2_poly'
p1955
atp1956
a(L2908205468L
L0L
(lp1957
(lp1958
tp1959
a(L3719441925L
L3438772250L
(lp1960
(lp1961
S'_add2'
p1962
atp1963
a(L1624188015L
L0L
(lp1964
(lp1965
tp1966
a(L4143153844L
L0L
(lp1967
(lp1968
tp1969
a(L3720074600L
L3438772250L
(lp1970
(lp1971
S'_add2'
p1972
atp1973
a(L2876811099L
L0L
(lp1974
(lp1975
tp1976
atp1977
sL10096L
(S'_square2'
p1978
(lp1979
(L1012355855L
L0L
(lp1980
(lp1981
tp1982
a(L3840279295L
L3438772250L
(lp1983
(lp1984
S'_copy'
p1985
atp1986
a(L3063294894L
L0L
(lp1987
(lp1988
tp1989
a(L1248216136L
L0L
(lp1990
(lp1991
tp1992
a(L3272814513L
L0L
(lp1993
(lp1994
tp1995
a(L595039754L
L1371514080L
(lp1996
(lp1997
tp1998
a(L2016139414L
L0L
(lp1999
(lp2000
tp2001
a(L3275526345L
L0L
(lp2002
(lp2003
tp2004
a(L3052482237L
L0L
(lp2005
(lp2006
tp2007
a(L3826236372L
L3438772250L
(lp2008
(lp2009
S'_mr_lzero'
p2010
atp2011
a(L287221709L
L0L
(lp2012
(lp2013
tp2014
atp2015
sL5472L
(S'_gcd2'
p2016
(lp2017
(L4033659508L
L3438772250L
(lp2018
(lp2019
S'_size'
p2020
atp2021
a(L1889615341L
L3438772250L
(lp2022
(lp2023
S'_copy'
p2024
atp2025
a(L4273498400L
L101928568L
(lp2026
(lp2027
S'_copy'
p2028
aS'_copy'
p2029
aS'_remain2'
p2030
aS'_size'
p2031
atp2032
a(L4213239620L
L3652417470L
(lp2033
(lp2034
S'_copy'
p2035
aS'_copy'
p2036
aS'_copy'
p2037
aS'_remain2'
p2038
aS'_size'
p2039
atp2040
a(L1332429945L
L434665910L
(lp2041
(lp2042
S'_copy'
p2043
atp2044
atp2045
sL13920L
(S'_multi_inverse2'
p2046
(lp2047
(L2826327449L
L0L
(lp2048
(lp2049
tp2050
a(L3255209645L
L0L
(lp2051
(lp2052
tp2053
a(L3221251116L
L0L
(lp2054
(lp2055
tp2056
a(L4169469588L
L0L
(lp2057
(lp2058
tp2059
a(L4256964126L
L3438772250L
(lp2060
(lp2061
S'_mr_berror'
p2062
atp2063
a(L4283476518L
L0L
(lp2064
(lp2065
tp2066
a(L98740910L
L3438772250L
(lp2067
(lp2068
S'_inverse2'
p2069
atp2070
a(L2400349559L
L1354249480L
(lp2071
(lp2072
S'_convert'
p2073
aS'_copy'
p2074
atp2075
a(L1324292984L
L0L
(lp2076
(lp2077
tp2078
a(L1547521535L
L0L
(lp2079
(lp2080
tp2081
a(L3754690159L
L3438772250L
(lp2082
(lp2083
S'_modmult2'
p2084
atp2085
a(L1676356274L
L1015000508L
(lp2086
(lp2087
S'_modmult2'
p2088
aS'_size'
p2089
atp2090
a(L1488508563L
L3438772250L
(lp2091
(lp2092
S'_mr_berror'
p2093
atp2094
a(L816416919L
L3606524018L
(lp2095
(lp2096
S'_inverse2'
p2097
aS'_copy'
p2098
aS'_modmult2'
p2099
atp2100
a(L2980064807L
L0L
(lp2101
(lp2102
tp2103
a(L1783681345L
L3606524018L
(lp2104
(lp2105
S'_modmult2'
p2106
aS'_modmult2'
p2107
aS'_modmult2'
p2108
atp2109
a(L3167516577L
L434665910L
(lp2110
(lp2111
S'_modmult2'
p2112
atp2113
a(L920739072L
L0L
(lp2114
(lp2115
tp2116
atp2117
ssS'fuzzydups'
p2118
c__builtin__
set
p2119
((lp2120
tp2121
Rp2122
sS'stringdups'
p2123
g2119
((lp2124
tp2125
Rp2126
sS'immediates'
p2127
(dp2128
sS'formaldups'
p2129
g2119
((lp2130
tp2131
Rp2132
sS'immediatedups'
p2133
g2119
((lp2134
tp2135
Rp2136
sS'fuzzy'
p2137
(dp2138
L3308182529L
L10384L
sL647013767L
L5472L
sL192720656L
L10096L
sL4236096403L
L192L
sL3509052441L
L3296L
sL3562417183L
L12672L
sL4134131873L
L9920L
sL4175507492L
L14480L
sL1626724774L
L1776L
sL1467379591L
L208L
sL4222023861L
L2880L
sL1404914371L
L12800L
sL1902881591L
L14608L
sL1768158019L
L3808L
sL1940642890L
L6160L
sL2230082123L
L4800L
sL2524503628L
L272L
sL1987795410L
L3008L
sL910570963L
L14576L
sL3690127319L
L10560L
sL411491673L
L15136L
sL160008796L
L13920L
sL42166878L
L14368L
sL3171068767L
L15328L
sL1613006177L
L1360L
sL3756798823L
L14736L
sL3454614257L
L5200L
sL91997174L
L5888L
sL1466328569L
L5760L
sL586612989L
L10016L
ssS'strings'
p2139
(dp2140
sS'formal'
p2141
(dp2142
L1294288266L
L5472L
sL3491252496L
L3808L
sL2503192468L
L10016L
sL3828462102L
L1776L
sL3318833945L
L272L
sL180157468L
L2416L
sL3341157279L
L9920L
sL2971644064L
L10096L
sL3246248481L
L5888L
sL1741029027L
L10560L
sL1791556778L
L14368L
sL1867806126L
L3296L
sL46236592L
L14480L
sL339177272L
L12800L
sL3869398396L
L2880L
sL1062056125L
L12672L
sL745665986L
L5200L
sL3195310022L
L14608L
sL4134863820L
L15136L
sL4016558556L
L5760L
sL3715499872L
L14576L
sL1712472801L
L1360L
sL3979741798L
L10384L
sL1941671420L
L192L
sL67965806L
L15328L
sL144575471L
L3008L
sL1410587126L
L208L
sL883412984L
L6160L
sL3308515834L
L13920L
sL793400188L
L4800L
sL212503678L
L14736L
ssb.