ccopy_reg
_reconstructor
p0
(c__main__
RizzoSignatures
p1
c__builtin__
object
p2
Ntp3
Rp4
(dp5
S'functions'
p6
(dp7
L0L
(S'_instr'
p8
(lp9
(L1321884898L
L1650168448L
(lp10
(lp11
tp12
a(L1127135805L
L1650168448L
(lp13
(lp14
tp15
a(L825097883L
L1650168448L
(lp16
(lp17
tp18
a(L520110351L
L1912178190L
(lp19
(lp20
S'_mr_track'
p21
atp22
a(L1755806644L
L0L
(lp23
(lp24
tp25
a(L3068550748L
L0L
(lp26
(lp27
tp28
a(L792642561L
L0L
(lp29
(lp30
tp31
a(L3837058978L
L0L
(lp32
(lp33
tp34
a(L786616424L
L1912178190L
(lp35
(lp36
S'_zero'
p37
atp38
a(L3205218208L
L0L
(lp39
(lp40
tp41
a(L3349829217L
L0L
(lp42
(lp43
tp44
a(L2565030123L
L0L
(lp45
(lp46
tp47
a(L2916333275L
L0L
(lp48
(lp49
tp50
a(L3259895994L
L724399901L
(lp51
L4294967295L
a(lp52
S'_fgetc'
p53
atp54
a(L573539062L
L1650168448L
(lp55
(lp56
tp57
a(L2352444574L
L0L
(lp58
(lp59
tp60
a(L3264066758L
L0L
(lp61
(lp62
tp63
a(L964729939L
L724399901L
(lp64
L4294967295L
a(lp65
S'_fgetc'
p66
atp67
a(L2662452109L
L1650168448L
(lp68
(lp69
tp70
a(L2515995396L
L0L
(lp71
(lp72
tp73
a(L802285732L
L0L
(lp74
(lp75
tp76
a(L749747763L
L0L
(lp77
(lp78
tp79
a(L2589922770L
L1650168448L
(lp80
(lp81
tp82
a(L1847279771L
L0L
(lp83
(lp84
tp85
a(L2542054831L
L0L
(lp86
(lp87
tp88
a(L3249209674L
L0L
(lp89
(lp90
tp91
a(L3872954401L
L0L
(lp92
(lp93
tp94
a(L3522462151L
L0L
(lp95
(lp96
tp97
a(L2977104401L
L0L
(lp98
(lp99
tp100
a(L2916333275L
L0L
(lp101
(lp102
tp103
a(L2680530252L
L0L
(lp104
(lp105
tp106
a(L3498532620L
L724399901L
(lp107
L4294967295L
a(lp108
S'_fgetc'
p109
atp110
a(L1668607370L
L1650168448L
(lp111
(lp112
tp113
a(L3249209674L
L0L
(lp114
(lp115
tp116
a(L1831803558L
L2614424152L
(lp117
(lp118
tp119
a(L4265222933L
L0L
(lp120
(lp121
tp122
a(L802285732L
L0L
(lp123
(lp124
tp125
a(L3267410678L
L0L
(lp126
(lp127
tp128
a(L3794550449L
L1650168448L
(lp129
(lp130
tp131
a(L1969194897L
L0L
(lp132
(lp133
tp134
a(L2883584475L
L0L
(lp135
(lp136
tp137
a(L74643207L
L0L
(lp138
(lp139
tp140
a(L3943432340L
L1504367735L
(lp141
L4294967295L
a(lp142
tp143
a(L3137757545L
L0L
(lp144
(lp145
tp146
a(L1888027557L
L0L
(lp147
(lp148
tp149
a(L1510243765L
L0L
(lp150
(lp151
tp152
a(L2775894090L
L0L
(lp153
(lp154
tp155
a(L228924963L
L0L
(lp156
(lp157
tp158
a(L420318725L
L0L
(lp159
(lp160
tp161
a(L3223263194L
L0L
(lp162
(lp163
tp164
a(L3125946504L
L0L
(lp165
(lp166
tp167
a(L1987773215L
L1354249480L
(lp168
(lp169
S'_copy'
p170
aS'_zero'
p171
atp172
a(L3195170247L
L0L
(lp173
(lp174
tp175
a(L3589275161L
L2941833480L
(lp176
(lp177
S'_zero'
p178
aS'_putdig'
p179
atp180
a(L2337123720L
L0L
(lp181
(lp182
tp183
a(L1004724408L
L0L
(lp184
(lp185
tp186
a(L2241644982L
L0L
(lp187
(lp188
tp189
a(L3825375376L
L0L
(lp190
(lp191
tp192
a(L185940187L
L0L
(lp193
(lp194
tp195
a(L3531111202L
L0L
(lp196
(lp197
tp198
a(L1911451686L
L0L
(lp199
(lp200
tp201
a(L179940169L
L0L
(lp202
(lp203
tp204
a(L55405502L
L0L
(lp205
(lp206
tp207
a(L2087548905L
L0L
(lp208
(lp209
tp210
a(L2208767344L
L0L
(lp211
(lp212
tp213
a(L1153092127L
L0L
(lp214
(lp215
tp216
a(L3557168957L
L0L
(lp217
(lp218
tp219
a(L57405483L
L0L
(lp220
(lp221
tp222
a(L1580101550L
L0L
(lp223
(lp224
tp225
a(L614610241L
L0L
(lp226
(lp227
tp228
a(L3249209674L
L0L
(lp229
(lp230
tp231
a(L55405502L
L0L
(lp232
(lp233
tp234
a(L2087548905L
L0L
(lp235
(lp236
tp237
a(L908320021L
L0L
(lp238
(lp239
tp240
a(L2241644982L
L0L
(lp241
(lp242
tp243
a(L3825375376L
L0L
(lp244
(lp245
tp246
a(L907320144L
L0L
(lp247
(lp248
tp249
a(L2884085930L
L0L
(lp250
(lp251
tp252
a(L3531111202L
L0L
(lp253
(lp254
tp255
a(L1911451686L
L0L
(lp256
(lp257
tp258
a(L2089875556L
L0L
(lp259
(lp260
tp261
a(L3531111202L
L0L
(lp262
(lp263
tp264
a(L1911451686L
L0L
(lp265
(lp266
tp267
a(L792319865L
L0L
(lp268
(lp269
tp270
a(L4117711387L
L0L
(lp271
(lp272
tp273
a(L946571679L
L3438772250L
(lp274
(lp275
S'_putdig'
p276
atp277
a(L1795816891L
L1650168448L
(lp278
(lp279
tp280
a(L282234405L
L0L
(lp281
(lp282
tp283
a(L693495510L
L2332948430L
(lp284
(lp285
S'_insign'
p286
aS'_mr_lzero'
p287
aS'_mr_lzero'
p288
atp289
a(L809003401L
L434665910L
(lp290
(lp291
S'_fpack'
p292
atp293
a(L708415470L
L1650168448L
(lp294
(lp295
tp296
a(L2096057146L
L0L
(lp297
(lp298
tp299
a(L4276588224L
L0L
(lp300
(lp301
tp302
a(L3237093338L
L1912178190L
(lp303
(lp304
S'_mr_berror'
p305
atp306
a(L1890591993L
L0L
(lp307
(lp308
tp309
atp310
sL2816L
(S'_mr_track'
p311
(lp312
(L425776429L
L0L
(lp313
(lp314
tp315
atp316
sL2824L
(S'_getdig'
p317
(lp318
(L425776429L
L0L
(lp319
(lp320
tp321
atp322
sL2828L
(S'_numdig'
p323
(lp324
(L425776429L
L0L
(lp325
(lp326
tp327
atp328
sL1040L
(S'_otstr'
p329
(lp330
(L313778963L
L1650168448L
(lp331
(lp332
tp333
a(L278084184L
L1650168448L
(lp334
(lp335
tp336
a(L1602410506L
L1650168448L
(lp337
(lp338
tp339
a(L520110351L
L1912178190L
(lp340
(lp341
S'_mr_track'
p342
atp343
a(L2349416486L
L0L
(lp344
(lp345
tp346
a(L3068550748L
L0L
(lp347
(lp348
tp349
a(L795181379L
L0L
(lp350
(lp351
tp352
a(L3837058978L
L0L
(lp353
(lp354
tp355
a(L2574567234L
L3504974572L
(lp356
(lp357
S'_exsign'
p358
aS'_insign'
p359
atp360
a(L2682425477L
L0L
(lp361
(lp362
tp363
a(L3052369080L
L0L
(lp364
(lp365
tp366
a(L913553153L
L0L
(lp367
(lp368
tp369
a(L3385102828L
L2941833480L
(lp370
(lp371
S'_fputc'
p372
aS'_fputc'
p373
atp374
a(L2948783404L
L1650168448L
(lp375
(lp376
tp377
a(L2277079954L
L1504367735L
(lp378
L4294967295L
a(lp379
tp380
a(L2682425477L
L0L
(lp381
(lp382
tp383
a(L3052369080L
L0L
(lp384
(lp385
tp386
a(L1739599028L
L0L
(lp387
(lp388
tp389
a(L2555558741L
L3438772250L
(lp390
(lp391
S'_fputc'
p392
atp393
a(L2249264557L
L1650168448L
(lp394
(lp395
tp396
a(L2014568165L
L1912178190L
(lp397
(lp398
S'_numer'
p399
atp400
a(L536926553L
L2941833480L
(lp401
(lp402
S'_denom'
p403
aS'_size'
p404
atp405
a(L1374503550L
L3773056921L
(lp406
L65535L
a(lp407
tp408
a(L2307479712L
L0L
(lp409
(lp410
tp411
a(L3647864382L
L1650168448L
(lp412
(lp413
tp414
a(L1426811650L
L434665910L
(lp415
(lp416
S'_mr_shift'
p417
atp418
a(L3248209552L
L0L
(lp419
(lp420
tp421
a(L138985367L
L434665910L
(lp422
(lp423
S'_mr_shift'
p424
atp425
a(L2671469049L
L434665910L
(lp426
(lp427
S'_mr_compare'
p428
atp429
a(L1569478227L
L0L
(lp430
(lp431
tp432
a(L3762563080L
L4079538650L
(lp433
(lp434
S'_copy'
p435
atp436
a(L1432546406L
L0L
(lp437
(lp438
tp439
a(L4285913686L
L3152541604L
(lp440
(lp441
S'_mr_shift'
p442
aS'_divide'
p443
atp444
a(L1795816891L
L1650168448L
(lp445
(lp446
tp447
a(L4053121653L
L3438772250L
(lp448
(lp449
S'_numdig'
p450
atp451
a(L1270471749L
L0L
(lp452
(lp453
tp454
a(L458091521L
L0L
(lp455
(lp456
tp457
a(L346298920L
L1650168448L
(lp458
(lp459
tp460
a(L590396236L
L0L
(lp461
(lp462
tp463
a(L2050678875L
L0L
(lp464
(lp465
tp466
a(L3425687584L
L0L
(lp467
(lp468
tp469
a(L4269670797L
L0L
(lp470
(lp471
tp472
a(L1931015827L
L0L
(lp473
(lp474
tp475
a(L474741163L
L0L
(lp476
(lp477
tp478
a(L614283386L
L3438772250L
(lp479
(lp480
S'_fputc'
p481
atp482
a(L1648585970L
L1650168448L
(lp483
(lp484
tp485
a(L4077758338L
L0L
(lp486
(lp487
tp488
a(L4107175153L
L0L
(lp489
(lp490
tp491
a(L1489278281L
L2721549804L
(lp492
(lp493
S'_getdig'
p494
aS'_putdig'
p495
atp496
a(L2081195038L
L0L
(lp497
(lp498
tp499
a(L1907826584L
L0L
(lp500
(lp501
tp502
a(L218014515L
L0L
(lp503
(lp504
tp505
a(L1907826585L
L0L
(lp506
(lp507
tp508
a(L1830899636L
L0L
(lp509
(lp510
tp511
a(L2108523531L
L0L
(lp512
(lp513
tp514
a(L2926873540L
L0L
(lp515
(lp516
tp517
a(L1267287420L
L0L
(lp518
(lp519
tp520
a(L4131878920L
L0L
(lp521
(lp522
tp523
a(L3447947719L
L0L
(lp524
(lp525
tp526
a(L2454387405L
L0L
(lp527
(lp528
tp529
a(L839108564L
L0L
(lp530
(lp531
tp532
a(L1263725240L
L0L
(lp533
(lp534
tp535
a(L3246209545L
L0L
(lp536
(lp537
tp538
a(L2476515532L
L0L
(lp539
(lp540
tp541
a(L3832048590L
L0L
(lp542
(lp543
tp544
a(L3407199234L
L0L
(lp545
(lp546
tp547
a(L3432687716L
L0L
(lp548
(lp549
tp550
a(L4269670797L
L0L
(lp551
(lp552
tp553
a(L1918056592L
L0L
(lp554
(lp555
tp556
a(L3227367981L
L3438772250L
(lp557
(lp558
S'_size'
p559
atp560
a(L1795816891L
L1650168448L
(lp561
(lp562
tp563
a(L2910847330L
L0L
(lp564
(lp565
tp566
a(L1317633360L
L0L
(lp567
(lp568
tp569
a(L4129983496L
L3438772250L
(lp570
(lp571
S'_fputc'
p572
atp573
a(L3989245526L
L0L
(lp574
(lp575
tp576
a(L538498983L
L0L
(lp577
(lp578
tp579
a(L3747864368L
L1650168448L
(lp580
(lp581
tp582
a(L3578447938L
L2941833480L
(lp583
(lp584
S'_denom'
p585
aS'_size'
p586
atp587
a(L485287650L
L1650168448L
(lp588
(lp589
tp590
a(L3052369080L
L0L
(lp591
(lp592
tp593
a(L1355283130L
L1650168448L
(lp594
(lp595
tp596
a(L677848671L
L1912178190L
(lp597
(lp598
S'_fputc'
p599
atp600
a(L2849827176L
L0L
(lp601
(lp602
tp603
a(L2027387145L
L1912178190L
(lp604
(lp605
S'_mr_berror'
p606
atp607
a(L1795816891L
L1650168448L
(lp608
(lp609
tp610
a(L863099275L
L0L
(lp611
(lp612
tp613
a(L1202863586L
L0L
(lp614
(lp615
tp616
a(L1515566135L
L0L
(lp617
(lp618
tp619
a(L1296011617L
L0L
(lp620
(lp621
tp622
a(L1857777714L
L0L
(lp623
(lp624
tp625
a(L2866585252L
L3438772250L
(lp626
(lp627
S'_fputc'
p628
atp629
a(L3414915649L
L1650168448L
(lp630
(lp631
tp632
a(L1296011617L
L0L
(lp633
(lp634
tp635
a(L3532932144L
L0L
(lp636
(lp637
tp638
a(L1147645069L
L0L
(lp639
(lp640
tp641
a(L1830899636L
L0L
(lp642
(lp643
tp644
a(L1341405616L
L3438772250L
(lp645
(lp646
S'_fputc'
p647
atp648
a(L2588886505L
L1912178190L
(lp649
(lp650
S'_insign'
p651
atp652
a(L4276588224L
L0L
(lp653
(lp654
tp655
a(L3237093338L
L1912178190L
(lp656
(lp657
S'_mr_berror'
p658
atp659
a(L3351156743L
L0L
(lp660
(lp661
tp662
atp663
sL2836L
(S'_mr_compare'
p664
(lp665
(L425776429L
L0L
(lp666
(lp667
tp668
atp669
sL2840L
(S'_mr_shift'
p670
(lp671
(L425776429L
L0L
(lp672
(lp673
tp674
atp675
sL2844L
(S'_size'
p676
(lp677
(L425776429L
L0L
(lp678
(lp679
tp680
atp681
sL2848L
(S'_denom'
p682
(lp683
(L425776429L
L0L
(lp684
(lp685
tp686
atp687
sL2852L
(S'_numer'
p688
(lp689
(L425776429L
L0L
(lp690
(lp691
tp692
atp693
sL2856L
(S'_fputc'
p694
(lp695
(L425776429L
L0L
(lp696
(lp697
tp698
atp699
sL2860L
(S'_exsign'
p700
(lp701
(L425776429L
L0L
(lp702
(lp703
tp704
atp705
sL2496L
(S'_innum'
p706
(lp707
(L489289533L
L1650168448L
(lp708
(lp709
tp710
a(L1310365671L
L0L
(lp711
(lp712
tp713
a(L2622929612L
L1650168448L
(lp714
(lp715
tp716
a(L4167029340L
L1650168448L
(lp717
(lp718
tp719
a(L520110351L
L1912178190L
(lp720
(lp721
S'_mr_track'
p722
atp723
a(L1922876241L
L3292274482L
(lp724
(lp725
S'_instr'
p726
atp727
atp728
sL2640L
(S'_otnum'
p729
(lp730
(L489289533L
L1650168448L
(lp731
(lp732
tp733
a(L1310365671L
L0L
(lp734
(lp735
tp736
a(L2622929612L
L1650168448L
(lp737
(lp738
tp739
a(L3805616879L
L1650168448L
(lp740
(lp741
tp742
a(L520110351L
L1912178190L
(lp743
(lp744
S'_mr_track'
p745
atp746
a(L544774037L
L3292274482L
(lp747
(lp748
S'_otstr'
p749
atp750
atp751
sL2784L
(S'_mr_berror'
p752
(lp753
(L425776429L
L0L
(lp754
(lp755
tp756
atp757
sL2832L
(S'_divide'
p758
(lp759
(L425776429L
L0L
(lp760
(lp761
tp762
atp763
sL2788L
(S'_fpack'
p764
(lp765
(L425776429L
L0L
(lp766
(lp767
tp768
atp769
sL2792L
(S'_mr_lzero'
p770
(lp771
(L425776429L
L0L
(lp772
(lp773
tp774
atp775
sL2796L
(S'_insign'
p776
(lp777
(L425776429L
L0L
(lp778
(lp779
tp780
atp781
sL2800L
(S'_putdig'
p782
(lp783
(L425776429L
L0L
(lp784
(lp785
tp786
atp787
sL2804L
(S'_copy'
p788
(lp789
(L425776429L
L0L
(lp790
(lp791
tp792
atp793
sL2808L
(S'_fgetc'
p794
(lp795
(L425776429L
L0L
(lp796
(lp797
tp798
atp799
sL2812L
(S'_zero'
p800
(lp801
(L425776429L
L0L
(lp802
(lp803
tp804
atp805
ssS'fuzzydups'
p806
c__builtin__
set
p807
((lp808
tp809
Rp810
sS'stringdups'
p811
g807
((lp812
tp813
Rp814
sS'immediates'
p815
(dp816
L65535L
L1040L
ssS'formaldups'
p817
g807
((lp818
tp819
Rp820
sS'immediatedups'
p821
g807
((lp822
tp823
Rp824
sS'fuzzy'
p825
(dp826
L1601692080L
L0L
sL3080167322L
L1040L
ssS'strings'
p827
(dp828
sS'formal'
p829
(dp830
L1231635144L
L0L
sL3990755956L
L1040L
sL1970278301L
L2496L
sL1114307382L
L2640L
ssb.