ccopy_reg
_reconstructor
p0
(c__main__
RizzoSignatures
p1
c__builtin__
object
p2
Ntp3
Rp4
(dp5
S'functions'
p6
(dp7
L0L
(S'_jack'
p8
(lp9
(L3401534617L
L1650168448L
(lp10
(lp11
tp12
a(L3701404798L
L3438772250L
(lp13
(lp14
S'_size'
p15
atp16
a(L4204508766L
L3438772250L
(lp17
(lp18
S'_size'
p19
atp20
a(L3155000906L
L2614424152L
(lp21
(lp22
tp23
a(L3925297158L
L1650168448L
(lp24
(lp25
tp26
a(L520110351L
L1912178190L
(lp27
(lp28
S'_mr_track'
p29
atp30
a(L3326442882L
L694038020L
(lp31
L2147483649L
a(lp32
S'_copy'
p33
aS'_remain'
p34
atp35
a(L3125598927L
L1504367734L
(lp36
L4294967294L
a(lp37
tp38
a(L3246209545L
L0L
(lp39
(lp40
tp41
a(L3110991158L
L1650168448L
(lp42
(lp43
tp44
a(L3441517590L
L0L
(lp45
(lp46
tp47
a(L4087515642L
L3438772250L
(lp48
(lp49
S'_size'
p50
atp51
a(L3920113803L
L3990344595L
(lp52
L2147483651L
a(lp53
tp54
a(L4243637730L
L1504367728L
(lp55
L4294967292L
a(lp56
tp57
a(L2456362596L
L0L
(lp58
(lp59
tp60
a(L3000955921L
L1504367735L
(lp61
L4294967295L
a(lp62
tp63
a(L1684755297L
L434665910L
(lp64
(lp65
S'_negify'
p66
atp67
a(L462690L
L434665910L
(lp68
(lp69
S'_copy'
p70
atp71
a(L3065952744L
L434665910L
(lp72
(lp73
S'_size'
p74
atp75
a(L1367428096L
L434665910L
(lp76
(lp77
S'_remain'
p78
atp79
a(L1870587601L
L434665910L
(lp80
(lp81
S'_subdiv'
p82
atp83
a(L1271771578L
L0L
(lp84
(lp85
tp86
a(L2884385639L
L0L
(lp87
(lp88
tp89
a(L657442885L
L434665910L
(lp90
(lp91
S'_remain'
p92
atp93
a(L3049818581L
L434665910L
(lp94
(lp95
S'_mr_compare'
p96
atp97
a(L3869876627L
L2287761245L
(lp98
L2147483651L
a(lp99
S'_remain'
p100
atp101
a(L2547800337L
L1504367728L
(lp102
L4294967292L
a(lp103
tp104
a(L1962540665L
L0L
(lp105
(lp106
tp107
a(L461467961L
L3990344595L
(lp108
L2147483651L
a(lp109
tp110
a(L2849781403L
L1504367728L
(lp111
L4294967292L
a(lp112
tp113
a(L3271027031L
L0L
(lp114
(lp115
tp116
a(L2884385639L
L0L
(lp117
(lp118
tp119
a(L2240723164L
L1015000508L
(lp120
(lp121
S'_mr_psub'
p122
aS'_subdiv'
p123
atp124
a(L1271771578L
L0L
(lp125
(lp126
tp127
a(L2884385639L
L0L
(lp128
(lp129
tp130
a(L4207078039L
L434665910L
(lp131
(lp132
S'_size'
p133
atp134
a(L3510139736L
L2640012870L
(lp135
(lp136
S'_size'
p137
atp138
atp139
sL672L
(S'_remain'
p140
(lp141
(L425776429L
L0L
(lp142
(lp143
tp144
atp145
sL676L
(S'_copy'
p146
(lp147
(L425776429L
L0L
(lp148
(lp149
tp150
atp151
sL680L
(S'_mr_track'
p152
(lp153
(L425776429L
L0L
(lp154
(lp155
tp156
atp157
sL684L
(S'_size'
p158
(lp159
(L425776429L
L0L
(lp160
(lp161
tp162
atp163
sL656L
(S'_mr_psub'
p164
(lp165
(L425776429L
L0L
(lp166
(lp167
tp168
atp169
sL660L
(S'_mr_compare'
p170
(lp171
(L425776429L
L0L
(lp172
(lp173
tp174
atp175
sL664L
(S'_subdiv'
p176
(lp177
(L425776429L
L0L
(lp178
(lp179
tp180
atp181
sL668L
(S'_negify'
p182
(lp183
(L425776429L
L0L
(lp184
(lp185
tp186
atp187
ssS'fuzzydups'
p188
c__builtin__
set
p189
((lp190
tp191
Rp192
sS'stringdups'
p193
g189
((lp194
tp195
Rp196
sS'immediates'
p197
(dp198
L2147483649L
L0L
sL4294967295L
L0L
sL4294967294L
L0L
ssS'formaldups'
p199
g189
((lp200
tp201
Rp202
sS'immediatedups'
p203
g189
((lp204
tp205
Rp206
sS'fuzzy'
p207
(dp208
L2512978475L
L0L
ssS'strings'
p209
(dp210
sS'formal'
p211
(dp212
L2048869598L
L0L
ssb.