ccopy_reg
_reconstructor
p0
(c__main__
RizzoSignatures
p1
c__builtin__
object
p2
Ntp3
Rp4
(dp5
S'functions'
p6
(dp7
L0L
(S'_kill_monty'
p8
(lp9
(L3408301120L
L434665910L
(lp10
(lp11
S'_zero'
p12
atp13
atp14
sL6568L
(S'_convert'
p15
(lp16
(L425776429L
L0L
(lp17
(lp18
tp19
atp20
sL1928L
(S'_nres_lazy'
p21
(lp22
(L3985540784L
L1650168448L
(lp23
(lp24
tp25
a(L2047477691L
L2614424152L
(lp26
(lp27
tp28
a(L2541884655L
L1650168448L
(lp29
(lp30
tp31
a(L520110351L
L1912178190L
(lp32
(lp33
S'_mr_track'
p34
atp35
a(L3356256908L
L3210440264L
(lp36
L4294967294L
a(lp37
S'_multiply'
p38
aS'_multiply'
p39
aS'_nres_double_modadd'
p40
atp41
a(L2661710270L
L1912178190L
(lp42
(lp43
S'_nres_double_modadd'
p44
atp45
a(L514930741L
L1517464814L
(lp46
(lp47
S'_nres_double_modsub'
p48
aS'_nres_modadd'
p49
aS'_nres_modadd'
p50
aS'_redc'
p51
aS'_multiply'
p52
aS'_nres_double_modsub'
p53
aS'_redc'
p54
atp55
a(L425776429L
L0L
(lp56
(lp57
tp58
atp59
sL6544L
(S'_zero'
p60
(lp61
(L425776429L
L0L
(lp62
(lp63
tp64
atp65
sL4888L
(S'_nres_modmult'
p66
(lp67
(L3215622733L
L0L
(lp68
(lp69
tp70
a(L541253252L
L0L
(lp71
(lp72
tp73
a(L1367041056L
L0L
(lp74
(lp75
tp76
a(L1682559236L
L0L
(lp77
(lp78
tp79
a(L3412546143L
L0L
(lp80
(lp81
tp82
a(L3267773503L
L0L
(lp83
(lp84
tp85
a(L2417360738L
L0L
(lp86
(lp87
tp88
a(L615954924L
L0L
(lp89
(lp90
tp91
a(L3371350777L
L0L
(lp92
(lp93
tp94
a(L2136279376L
L0L
(lp95
(lp96
tp97
a(L3985540784L
L1650168448L
(lp98
(lp99
tp100
a(L2622929612L
L1650168448L
(lp101
(lp102
tp103
a(L617418511L
L1650168448L
(lp104
(lp105
tp106
a(L520110351L
L1912178190L
(lp107
(lp108
S'_mr_track'
p109
atp110
a(L1931350020L
L1480990684L
(lp111
(lp112
S'_multiply'
p113
aS'_redc'
p114
atp115
a(L2201110054L
L3438772250L
(lp116
(lp117
S'_zero'
p118
atp119
a(L1994012262L
L0L
(lp120
(lp121
tp122
atp123
sL6040L
(S'_ecurve_init'
p124
(lp125
(L3985540784L
L1650168448L
(lp126
(lp127
tp128
a(L1140748212L
L1650168448L
(lp129
(lp130
tp131
a(L4075676242L
L1650168448L
(lp132
(lp133
tp134
a(L520110351L
L1912178190L
(lp135
(lp136
S'_mr_track'
p137
atp138
a(L1349792049L
L768734920L
(lp139
(lp140
S'_prepare_monty'
p141
aS'_size'
p142
atp143
a(L2883385512L
L0L
(lp144
(lp145
tp146
a(L3115062732L
L3667354999L
(lp147
L1073741824L
a(lp148
tp149
a(L1880489946L
L0L
(lp150
(lp151
tp152
a(L335636677L
L742754039L
(lp153
L1073741824L
a(lp154
S'_copy'
p155
aS'_divide'
p156
aS'_subtract'
p157
aS'_size'
p158
atp159
a(L2450473443L
L1650168448L
(lp160
(lp161
tp162
a(L2666986627L
L614471516L
(lp163
(lp164
S'_nres'
p165
aS'_size'
p166
atp167
a(L2883385512L
L0L
(lp168
(lp169
tp170
a(L3115062732L
L3667354999L
(lp171
L1073741824L
a(lp172
tp173
a(L1880489946L
L0L
(lp174
(lp175
tp176
a(L4288764058L
L742754039L
(lp177
L1073741824L
a(lp178
S'_copy'
p179
aS'_divide'
p180
aS'_subtract'
p181
aS'_size'
p182
atp183
a(L1716210901L
L1650168448L
(lp184
(lp185
tp186
a(L3835321020L
L434665910L
(lp187
(lp188
S'_nres'
p189
atp190
a(L895287497L
L2614424152L
(lp191
(lp192
tp193
a(L4241300575L
L2614424152L
(lp194
(lp195
tp196
a(L425776429L
L0L
(lp197
(lp198
tp199
atp200
sL2984L
(S'_nres_div3'
p201
(lp202
(L3868219565L
L2614424152L
(lp203
(lp204
tp205
a(L4120827402L
L1650168448L
(lp206
(lp207
tp208
a(L520110351L
L1912178190L
(lp209
(lp210
S'_mr_track'
p211
atp212
a(L368587569L
L2941833480L
(lp213
(lp214
S'_copy'
p215
aS'_remain'
p216
atp217
a(L2301457639L
L1015000508L
(lp218
(lp219
S'_add'
p220
aS'_remain'
p221
atp222
a(L3713920673L
L4255254916L
(lp223
(lp224
S'_subdiv'
p225
aS'_copy'
p226
atp227
atp228
sL6552L
(S'_mr_shift'
p229
(lp230
(L425776429L
L0L
(lp231
(lp232
tp233
atp234
sL6556L
(S'_mr_berror'
p235
(lp236
(L425776429L
L0L
(lp237
(lp238
tp239
atp240
sL32L
(S'_prepare_monty'
p241
(lp242
(L108603268L
L1650168448L
(lp243
(lp244
tp245
a(L2541621298L
L3438772250L
(lp246
(lp247
S'_size'
p248
atp249
a(L3176388739L
L434665910L
(lp250
(lp251
S'_mr_compare'
p252
atp253
a(L3836107581L
L1650168448L
(lp254
(lp255
tp256
a(L2133487739L
L2614424152L
(lp257
(lp258
tp259
a(L2205281314L
L1650168448L
(lp260
(lp261
tp262
a(L1868153140L
L3438772250L
(lp263
(lp264
S'_mr_track'
p265
atp266
a(L2539880905L
L3438772250L
(lp267
(lp268
S'_size'
p269
atp270
a(L3018082116L
L1408696214L
(lp271
(lp272
S'_zero'
p273
aS'_zero'
p274
aS'_remain'
p275
atp276
a(L2684345358L
L1650168448L
(lp277
(lp278
tp279
a(L3879771974L
L0L
(lp280
(lp281
tp282
a(L2476647162L
L1504367734L
(lp283
L4294967294L
a(lp284
tp285
a(L2549193221L
L1504367735L
(lp286
L4294967295L
a(lp287
tp288
a(L1795816891L
L1650168448L
(lp289
(lp290
tp291
a(L756646984L
L4079538650L
(lp292
(lp293
S'_convert'
p294
atp295
a(L2689370866L
L609169042L
(lp296
(lp297
S'_copy'
p298
atp299
a(L1916003913L
L2698866014L
(lp300
(lp301
S'_invmodp'
p302
atp303
a(L1631934967L
L1912178190L
(lp304
(lp305
S'_mr_berror'
p306
atp307
a(L133851771L
L0L
(lp308
(lp309
tp310
a(L2525745675L
L3216492846L
(lp311
(lp312
S'_copy'
p313
aS'_mr_shift'
p314
aS'_nres'
p315
atp316
atp317
sL6576L
(S'_mr_track'
p318
(lp319
(L425776429L
L0L
(lp320
(lp321
tp322
atp323
sL6564L
(S'_copy'
p324
(lp325
(L425776429L
L0L
(lp326
(lp327
tp328
atp329
sL2344L
(S'_nres_dotprod'
p330
(lp331
(L3985540784L
L1650168448L
(lp332
(lp333
tp334
a(L2040728463L
L1650168448L
(lp335
(lp336
tp337
a(L3585066220L
L1650168448L
(lp338
(lp339
tp340
a(L520110351L
L1912178190L
(lp341
(lp342
S'_mr_track'
p343
atp344
a(L3745538288L
L434665910L
(lp345
(lp346
S'_zero'
p347
atp348
a(L2099538331L
L0L
(lp349
(lp350
tp351
a(L853996756L
L1015000508L
(lp352
(lp353
S'_multiply'
p354
aS'_mr_padd'
p355
atp356
a(L573706057L
L0L
(lp357
(lp358
tp359
a(L2609831782L
L723487990L
(lp360
(lp361
S'_copy'
p362
aS'_divide'
p363
aS'_redc'
p364
atp365
a(L425776429L
L0L
(lp366
(lp367
tp368
atp369
sL3752L
(S'_nres_modadd'
p370
(lp371
(L3985540784L
L1650168448L
(lp372
(lp373
tp374
a(L3582075213L
L1650168448L
(lp375
(lp376
tp377
a(L561343189L
L1650168448L
(lp378
(lp379
tp380
a(L1868153140L
L3438772250L
(lp381
(lp382
S'_mr_track'
p383
atp384
a(L610272566L
L2941833480L
(lp385
(lp386
S'_mr_padd'
p387
aS'_mr_compare'
p388
atp389
a(L3243031558L
L434665910L
(lp390
(lp391
S'_mr_psub'
p392
atp393
a(L3237135458L
L1650168448L
(lp394
(lp395
tp396
a(L425776429L
L0L
(lp397
(lp398
tp399
atp400
sL6572L
(S'_remain'
p401
(lp402
(L425776429L
L0L
(lp403
(lp404
tp405
atp406
sL1072L
(S'_redc'
p407
(lp408
(L216185276L
L1650168448L
(lp409
(lp410
tp411
a(L3249209674L
L0L
(lp412
(lp413
tp414
a(L3698759705L
L432033468L
(lp415
(lp416
tp417
a(L1071910430L
L432033468L
(lp418
(lp419
tp420
a(L1868153140L
L3438772250L
(lp421
(lp422
S'_mr_track'
p423
atp424
a(L2565017972L
L891910158L
(lp425
(lp426
S'_copy'
p427
atp428
a(L419030277L
L768734920L
(lp429
(lp430
S'_divide'
p431
aS'_copy'
p432
atp433
a(L1165323823L
L1650168448L
(lp434
(lp435
tp436
a(L269065065L
L0L
(lp437
(lp438
tp439
a(L1787294027L
L0L
(lp440
(lp441
tp442
a(L1225755168L
L0L
(lp443
(lp444
tp445
a(L1744846877L
L0L
(lp446
(lp447
tp448
a(L3632212201L
L0L
(lp449
(lp450
tp451
a(L1255070716L
L0L
(lp452
(lp453
tp454
a(L3249209674L
L0L
(lp455
(lp456
tp457
a(L236475298L
L0L
(lp458
(lp459
tp460
a(L2290087361L
L0L
(lp461
(lp462
tp463
a(L3486442812L
L0L
(lp464
(lp465
tp466
a(L2860497696L
L434665910L
(lp467
(lp468
S'_muldiv'
p469
atp470
a(L2624631339L
L0L
(lp471
(lp472
tp473
a(L4226579212L
L0L
(lp474
(lp475
tp476
a(L1242064967L
L434665910L
(lp477
(lp478
S'_muldiv'
p479
atp480
a(L3761096505L
L1650168448L
(lp481
(lp482
tp483
a(L2079670506L
L1650168448L
(lp484
(lp485
tp486
a(L3249209674L
L0L
(lp487
(lp488
tp489
a(L520623354L
L449713974L
(lp490
(lp491
S'_mr_shift'
p492
aS'_mr_lzero'
p493
aS'_mr_compare'
p494
atp495
a(L2758638921L
L3438772250L
(lp496
(lp497
S'_mr_psub'
p498
atp499
a(L1664484899L
L609169042L
(lp500
(lp501
S'_copy'
p502
atp503
a(L328372734L
L0L
(lp504
(lp505
tp506
atp507
sL2632L
(S'_nres_negate'
p508
(lp509
(L3985540784L
L1650168448L
(lp510
(lp511
tp512
a(L3582075213L
L1650168448L
(lp513
(lp514
tp515
a(L3052843267L
L1650168448L
(lp516
(lp517
tp518
a(L1868153140L
L3438772250L
(lp519
(lp520
S'_mr_track'
p521
atp522
a(L1616429210L
L3438772250L
(lp523
(lp524
S'_size'
p525
atp526
a(L2019301535L
L1912178190L
(lp527
(lp528
S'_zero'
p529
atp530
a(L1776428861L
L4079538650L
(lp531
(lp532
S'_mr_psub'
p533
atp534
a(L425776429L
L0L
(lp535
(lp536
tp537
atp538
sL6580L
(S'_mr_compare'
p539
(lp540
(L425776429L
L0L
(lp541
(lp542
tp543
atp544
sL4072L
(S'_nres_moddiv'
p545
(lp546
(L3861406372L
L1650168448L
(lp547
(lp548
tp549
a(L2110596432L
L0L
(lp550
(lp551
tp552
a(L1127135805L
L1650168448L
(lp553
(lp554
tp555
a(L93262101L
L1650168448L
(lp556
(lp557
tp558
a(L520110351L
L1912178190L
(lp559
(lp560
S'_mr_track'
p561
atp562
a(L3549311266L
L0L
(lp563
(lp564
tp565
a(L1478715217L
L1912178190L
(lp566
(lp567
S'_mr_berror'
p568
atp569
a(L3944689008L
L2941833480L
(lp570
(lp571
S'_redc'
p572
aS'_invmodp'
p573
atp574
a(L294598886L
L1912178190L
(lp575
(lp576
S'_zero'
p577
atp578
a(L3349419781L
L4255254916L
(lp579
(lp580
S'_nres'
p581
aS'_nres_modmult'
p582
atp583
atp584
sL3896L
(S'_nres_modsub'
p585
(lp586
(L3985540784L
L1650168448L
(lp587
(lp588
tp589
a(L3972579996L
L1650168448L
(lp590
(lp591
tp592
a(L1111430608L
L1650168448L
(lp593
(lp594
tp595
a(L1868153140L
L3438772250L
(lp596
(lp597
S'_mr_track'
p598
atp599
a(L1491868502L
L3438772250L
(lp600
(lp601
S'_mr_compare'
p602
atp603
a(L3529006583L
L1912178190L
(lp604
(lp605
S'_mr_psub'
p606
atp607
a(L2730041377L
L3551412508L
(lp608
(lp609
S'_mr_psub'
p610
aS'_mr_psub'
p611
atp612
a(L425776429L
L0L
(lp613
(lp614
tp615
atp616
sL6588L
(S'_add'
p617
(lp618
(L425776429L
L0L
(lp619
(lp620
tp621
atp622
sL4328L
(S'_nres_premult'
p623
(lp624
(L2309667179L
L0L
(lp625
(lp626
tp627
a(L4022620004L
L3438772250L
(lp628
(lp629
S'_zero'
p630
atp631
a(L3255209645L
L0L
(lp632
(lp633
tp634
a(L1504852634L
L0L
(lp635
(lp636
tp637
a(L3985540784L
L1650168448L
(lp638
(lp639
tp640
a(L3309230818L
L1650168448L
(lp641
(lp642
tp643
a(L3961317671L
L1650168448L
(lp644
(lp645
tp646
a(L1868153140L
L3438772250L
(lp647
(lp648
S'_mr_track'
p649
atp650
a(L3863706441L
L0L
(lp651
(lp652
tp653
a(L891232401L
L0L
(lp654
(lp655
tp656
a(L2684345358L
L1650168448L
(lp657
(lp658
tp659
a(L91557274L
L3438772250L
(lp660
(lp661
S'_copy'
p662
atp663
a(L784319528L
L3438772250L
(lp664
(lp665
S'_nres_modadd'
p666
atp667
a(L331651480L
L1015000508L
(lp668
(lp669
S'_nres_modadd'
p670
aS'_nres_modadd'
p671
atp672
a(L2206159984L
L1354249480L
(lp673
(lp674
S'_nres_modadd'
p675
aS'_nres_modadd'
p676
atp677
a(L1164519986L
L4255254916L
(lp678
(lp679
S'_nres_modadd'
p680
aS'_nres_modadd'
p681
atp682
a(L3423922252L
L3551412508L
(lp683
(lp684
S'_nres_modadd'
p685
aS'_nres_modadd'
p686
atp687
a(L3335276410L
L3438772250L
(lp688
(lp689
S'_nres_modadd'
p690
atp691
a(L3264329104L
L0L
(lp692
(lp693
tp694
a(L164685559L
L1912178190L
(lp695
(lp696
S'_nres_negate'
p697
atp698
a(L2416224530L
L4255254916L
(lp699
(lp700
S'_premult'
p701
aS'_divide'
p702
atp703
a(L2855895059L
L1912178190L
(lp704
(lp705
S'_nres_negate'
p706
atp707
a(L4161150890L
L3438772250L
(lp708
(lp709
S'_copy'
p710
atp711
a(L3110991158L
L1650168448L
(lp712
(lp713
tp714
a(L1994012262L
L0L
(lp715
(lp716
tp717
atp718
sL6592L
(S'_divide'
p719
(lp720
(L425776429L
L0L
(lp721
(lp722
tp723
atp724
sL6560L
(S'_invmodp'
p725
(lp726
(L425776429L
L0L
(lp727
(lp728
tp729
atp730
sL6596L
(S'_mr_psub'
p731
(lp732
(L425776429L
L0L
(lp733
(lp734
tp735
atp736
sL5448L
(S'_nres_multi_inverse'
p737
(lp738
(L2826327449L
L0L
(lp739
(lp740
tp741
a(L3255209645L
L0L
(lp742
(lp743
tp744
a(L3221251116L
L0L
(lp745
(lp746
tp747
a(L2396856941L
L2614424152L
(lp748
(lp749
tp750
a(L4116277578L
L1650168448L
(lp751
(lp752
tp753
a(L520110351L
L1912178190L
(lp754
(lp755
S'_mr_track'
p756
atp757
a(L4169469588L
L0L
(lp758
(lp759
tp760
a(L451245041L
L1912178190L
(lp761
(lp762
S'_mr_berror'
p763
atp764
a(L3279830116L
L0L
(lp765
(lp766
tp767
a(L1564735501L
L1354249480L
(lp768
(lp769
S'_copy'
p770
aS'_nres_moddiv'
p771
atp772
a(L4096675213L
L1354249480L
(lp773
(lp774
S'_convert'
p775
aS'_copy'
p776
atp777
a(L4195045286L
L0L
(lp778
(lp779
tp780
a(L1547521535L
L0L
(lp781
(lp782
tp783
a(L1516913759L
L3438772250L
(lp784
(lp785
S'_nres_modmult'
p786
atp787
a(L1070887464L
L1015000508L
(lp788
(lp789
S'_nres_modmult'
p790
aS'_size'
p791
atp792
a(L2346672944L
L1912178190L
(lp793
(lp794
S'_mr_berror'
p795
atp796
a(L774283788L
L3652417470L
(lp797
(lp798
S'_redc'
p799
aS'_redc'
p800
aS'_invmodp'
p801
aS'_copy'
p802
aS'_nres_modmult'
p803
atp804
a(L2980064807L
L0L
(lp805
(lp806
tp807
a(L1783681345L
L3606524018L
(lp808
(lp809
S'_nres_modmult'
p810
aS'_nres_modmult'
p811
aS'_nres_modmult'
p812
atp813
a(L3167516577L
L434665910L
(lp814
(lp815
S'_nres_modmult'
p816
atp817
a(L3110991158L
L1650168448L
(lp818
(lp819
tp820
a(L920739072L
L0L
(lp821
(lp822
tp823
atp824
sL6604L
(S'_muldiv'
p825
(lp826
(L425776429L
L0L
(lp827
(lp828
tp829
atp830
sL6608L
(S'_multiply'
p831
(lp832
(L425776429L
L0L
(lp833
(lp834
tp835
atp836
sL6584L
(S'_size'
p837
(lp838
(L425776429L
L0L
(lp839
(lp840
tp841
atp842
sL6612L
(S'_mr_padd'
p843
(lp844
(L425776429L
L0L
(lp845
(lp846
tp847
atp848
sL6616L
(S'_subdiv'
p849
(lp850
(L425776429L
L0L
(lp851
(lp852
tp853
atp854
sL3208L
(S'_nres_div5'
p855
(lp856
(L3868219565L
L2614424152L
(lp857
(lp858
tp859
a(L2700680484L
L1650168448L
(lp860
(lp861
tp862
a(L520110351L
L1912178190L
(lp863
(lp864
S'_mr_track'
p865
atp866
a(L3982732403L
L2941833480L
(lp867
(lp868
S'_copy'
p869
aS'_remain'
p870
atp871
a(L11670089L
L1015000508L
(lp872
(lp873
S'_add'
p874
aS'_remain'
p875
atp876
a(L115536007L
L4255254916L
(lp877
(lp878
S'_subdiv'
p879
aS'_copy'
p880
atp881
atp882
sL6600L
(S'_mr_lzero'
p883
(lp884
(L425776429L
L0L
(lp885
(lp886
tp887
atp888
sL6620L
(S'_premult'
p889
(lp890
(L425776429L
L0L
(lp891
(lp892
tp893
atp894
sL6624L
(S'_subtract'
p895
(lp896
(L425776429L
L0L
(lp897
(lp898
tp899
atp900
sL3432L
(S'_nres_double_modadd'
p901
(lp902
(L3985540784L
L1650168448L
(lp903
(lp904
tp905
a(L3582075213L
L1650168448L
(lp906
(lp907
tp908
a(L422026905L
L1650168448L
(lp909
(lp910
tp911
a(L1868153140L
L3438772250L
(lp912
(lp913
S'_mr_track'
p914
atp915
a(L999502984L
L2941833480L
(lp916
(lp917
S'_mr_padd'
p918
aS'_mr_compare'
p919
atp920
a(L2920046036L
L434665910L
(lp921
(lp922
S'_mr_psub'
p923
atp924
a(L3237135458L
L1650168448L
(lp925
(lp926
tp927
a(L425776429L
L0L
(lp928
(lp929
tp930
atp931
sL752L
(S'_nres'
p932
(lp933
(L108603268L
L1650168448L
(lp934
(lp935
tp936
a(L1127135805L
L1650168448L
(lp937
(lp938
tp939
a(L2346238369L
L1650168448L
(lp940
(lp941
tp942
a(L520110351L
L1912178190L
(lp943
(lp944
S'_mr_track'
p945
atp946
a(L3961823440L
L3438772250L
(lp947
(lp948
S'_size'
p949
atp950
a(L1319724448L
L1912178190L
(lp951
(lp952
S'_mr_berror'
p953
atp954
a(L3234142770L
L2993483802L
(lp955
(lp956
S'_copy'
p957
aS'_divide'
p958
aS'_size'
p959
atp960
a(L4142042343L
L434665910L
(lp961
(lp962
S'_add'
p963
atp964
a(L3057698839L
L1650168448L
(lp965
(lp966
tp967
a(L119735625L
L1610230882L
(lp968
(lp969
S'_mr_shift'
p970
aS'_divide'
p971
aS'_copy'
p972
atp973
a(L2140119133L
L0L
(lp974
(lp975
tp976
a(L1356022597L
L0L
(lp977
(lp978
tp979
atp980
sL2792L
(S'_nres_div2'
p981
(lp982
(L3868219565L
L2614424152L
(lp983
(lp984
tp985
a(L2490473909L
L1650168448L
(lp986
(lp987
tp988
a(L520110351L
L1912178190L
(lp989
(lp990
S'_mr_track'
p991
atp992
a(L3815392868L
L2941833480L
(lp993
(lp994
S'_copy'
p995
aS'_remain'
p996
atp997
a(L1375060949L
L434665910L
(lp998
(lp999
S'_add'
p1000
atp1001
a(L1542343549L
L4255254916L
(lp1002
(lp1003
S'_subdiv'
p1004
aS'_copy'
p1005
atp1006
atp1007
sL5144L
(S'_nres_double_inverse'
p1008
(lp1009
(L2245328247L
L2614424152L
(lp1010
(lp1011
tp1012
a(L810426485L
L1650168448L
(lp1013
(lp1014
tp1015
a(L520110351L
L1912178190L
(lp1016
(lp1017
S'_mr_track'
p1018
atp1019
a(L2675541225L
L2941833480L
(lp1020
(lp1021
S'_nres_modmult'
p1022
aS'_size'
p1023
atp1024
a(L1336634552L
L1912178190L
(lp1025
(lp1026
S'_mr_berror'
p1027
atp1028
a(L3179195207L
L3617780156L
(lp1029
(lp1030
S'_redc'
p1031
aS'_redc'
p1032
aS'_invmodp'
p1033
aS'_nres_modmult'
p1034
aS'_nres_modmult'
p1035
aS'_copy'
p1036
atp1037
atp1038
sL3576L
(S'_nres_double_modsub'
p1039
(lp1040
(L3985540784L
L1650168448L
(lp1041
(lp1042
tp1043
a(L3972579996L
L1650168448L
(lp1044
(lp1045
tp1046
a(L1068648769L
L1650168448L
(lp1047
(lp1048
tp1049
a(L1868153140L
L3438772250L
(lp1050
(lp1051
S'_mr_track'
p1052
atp1053
a(L1491868502L
L3438772250L
(lp1054
(lp1055
S'_mr_compare'
p1056
atp1057
a(L3529006583L
L1912178190L
(lp1058
(lp1059
S'_mr_psub'
p1060
atp1061
a(L2240452391L
L3551412508L
(lp1062
(lp1063
S'_mr_psub'
p1064
aS'_mr_psub'
p1065
atp1066
a(L425776429L
L0L
(lp1067
(lp1068
tp1069
atp1070
ssS'fuzzydups'
p1071
c__builtin__
set
p1072
((lp1073
tp1074
Rp1075
sS'stringdups'
p1076
g1072
((lp1077
tp1078
Rp1079
sS'immediates'
p1080
(dp1081
L4294967295L
L32L
ssS'formaldups'
p1082
g1072
((lp1083
tp1084
Rp1085
sS'immediatedups'
p1086
g1072
((lp1087
tp1088
Rp1089
sS'fuzzy'
p1090
(dp1091
L715682279L
L6040L
sL3131551236L
L4328L
sL2535001190L
L2344L
sL3621326183L
L32L
sL1870294344L
L5144L
sL4156253181L
L5448L
sL1444689964L
L1072L
sL837947341L
L752L
sL3159604557L
L1928L
sL875538995L
L4888L
sL3153586261L
L4072L
sL3757327801L
L0L
sL2288855162L
L2632L
sL2644202029L
L2792L
ssS'strings'
p1092
(dp1093
sS'formal'
p1094
(dp1095
L2282806465L
L3208L
sL4019827906L
L0L
sL2351976963L
L3432L
sL3707186597L
L4328L
sL1139694803L
L3752L
sL1235516871L
L1072L
sL3182959304L
L2792L
sL3302299207L
L32L
sL4160530721L
L3896L
sL1059260653L
L2984L
sL1589993168L
L5144L
sL256037234L
L1928L
sL983076851L
L752L
sL1684275508L
L4072L
sL36585397L
L5448L
sL3410459863L
L3576L
sL1863932536L
L2344L
sL1460970746L
L4888L
sL792901756L
L2632L
sL3549436895L
L6040L
ssb.