ccopy_reg
_reconstructor
p0
(c__main__
RizzoSignatures
p1
c__builtin__
object
p2
Ntp3
Rp4
(dp5
S'functions'
p6
(dp7
L0L
(S'_nres_powltr'
p8
(lp9
(L3768737222L
L1650168448L
(lp10
(lp11
tp12
a(L1996149816L
L609169042L
(lp13
(lp14
S'_copy'
p15
atp16
a(L9559009L
L1650168448L
(lp17
(lp18
tp19
a(L1868153140L
L3438772250L
(lp20
(lp21
S'_mr_track'
p22
atp23
a(L2711654274L
L3438772250L
(lp24
(lp25
S'_zero'
p26
atp27
a(L4207078039L
L434665910L
(lp28
(lp29
S'_size'
p30
atp31
a(L3708460309L
L4079538650L
(lp32
(lp33
S'_copy'
p34
atp35
a(L3271414937L
L1015000508L
(lp36
(lp37
S'_copy'
p38
aS'_size'
p39
atp40
a(L3782609098L
L434665910L
(lp41
(lp42
S'_size'
p43
atp44
a(L2215257106L
L3438772250L
(lp45
(lp46
S'_mr_berror'
p47
atp48
a(L3985540784L
L1650168448L
(lp49
(lp50
tp51
a(L2582620271L
L0L
(lp52
(lp53
tp54
a(L2692395023L
L449713974L
(lp55
(lp56
S'_logb2'
p57
aS'_convert'
p58
aS'_nres'
p59
atp60
a(L3268824400L
L1504367734L
(lp61
L4294967294L
a(lp62
tp63
a(L423385090L
L1650168448L
(lp64
(lp65
tp66
a(L1868153140L
L0L
(lp67
(lp68
tp69
a(L912925948L
L2941833480L
(lp70
(lp71
S'_nres_modmult'
p72
aS'_mr_testbit'
p73
atp74
a(L916799342L
L2941833480L
(lp75
(lp76
S'_premult'
p77
aS'_divide'
p78
atp79
a(L2784938794L
L0L
(lp80
(lp81
tp82
a(L3249209674L
L0L
(lp83
(lp84
tp85
a(L3625014594L
L2332948430L
(lp86
(lp87
S'_logb2'
p88
aS'_expb2'
p89
aS'_size'
p90
atp91
a(L3698982887L
L1650168448L
(lp92
(lp93
tp94
a(L1868153140L
L0L
(lp95
(lp96
tp97
a(L3985540784L
L1650168448L
(lp98
(lp99
tp100
a(L1230471291L
L2941833480L
(lp101
(lp102
S'_nres_modmult'
p103
aS'_mr_compare'
p104
atp105
a(L3191717526L
L1190238782L
(lp106
(lp107
S'_premult'
p108
aS'_divide'
p109
aS'_subtract'
p110
atp111
a(L1017140489L
L1015000508L
(lp112
(lp113
S'_subdiv'
p114
aS'_size'
p115
atp116
a(L558442420L
L3438772250L
(lp117
(lp118
S'_size'
p119
atp120
a(L3243031558L
L434665910L
(lp121
(lp122
S'_add'
p123
atp124
a(L1795816891L
L1650168448L
(lp125
(lp126
tp127
a(L2140119133L
L0L
(lp128
(lp129
tp130
a(L1912738883L
L0L
(lp131
(lp132
tp133
atp134
sL5632L
(S'_mr_berror'
p135
(lp136
(L425776429L
L0L
(lp137
(lp138
tp139
atp140
sL5636L
(S'_size'
p141
(lp142
(L425776429L
L0L
(lp143
(lp144
tp145
atp146
sL5640L
(S'_zero'
p147
(lp148
(L425776429L
L0L
(lp149
(lp150
tp151
atp152
sL5644L
(S'_mr_track'
p153
(lp154
(L425776429L
L0L
(lp155
(lp156
tp157
atp158
sL3216L
(S'_powmod'
p159
(lp160
(L3401534617L
L1650168448L
(lp161
(lp162
tp163
a(L1127135805L
L1650168448L
(lp164
(lp165
tp166
a(L3036614360L
L1650168448L
(lp167
(lp168
tp169
a(L520110351L
L1912178190L
(lp170
(lp171
S'_mr_track'
p172
atp173
a(L1878609397L
L0L
(lp174
(lp175
tp176
a(L2543749829L
L3438772250L
(lp177
(lp178
S'_size'
p179
atp180
a(L894366711L
L434665910L
(lp181
(lp182
S'_sgcd'
p183
atp184
a(L3249209674L
L0L
(lp185
(lp186
tp187
a(L317714289L
L3438772250L
(lp188
(lp189
S'_subdivisible'
p190
atp191
a(L1188379829L
L3741882124L
(lp192
(lp193
S'_copy'
p194
aS'_copy'
p195
aS'_zero'
p196
aS'_size'
p197
atp198
a(L271689137L
L2941833480L
(lp199
(lp200
S'_convert'
p201
aS'_size'
p202
atp203
a(L3059512139L
L434665910L
(lp204
(lp205
S'_size'
p206
atp207
a(L2215257106L
L3438772250L
(lp208
(lp209
S'_mr_berror'
p210
atp211
a(L3402690705L
L0L
(lp212
(lp213
tp214
a(L883222028L
L3438772250L
(lp215
(lp216
S'_mr_berror'
p217
atp218
a(L3985540784L
L1650168448L
(lp219
(lp220
tp221
a(L2745201436L
L2941833480L
(lp222
(lp223
S'_normalise'
p224
aS'_divide'
p225
atp226
a(L3698982887L
L1650168448L
(lp227
(lp228
tp229
a(L1868153140L
L0L
(lp230
(lp231
tp232
a(L808720503L
L434665910L
(lp233
(lp234
S'_subdiv'
p235
atp236
a(L1041515619L
L434665910L
(lp237
(lp238
S'_mad'
p239
atp240
a(L3985540784L
L1650168448L
(lp241
(lp242
tp243
a(L1820060486L
L1912178190L
(lp244
(lp245
S'_size'
p246
atp247
a(L2392039292L
L3438772250L
(lp248
(lp249
S'_mad'
p250
atp251
a(L2687485117L
L0L
(lp252
(lp253
tp254
a(L2309739009L
L3504974572L
(lp255
(lp256
S'_mr_sdiv'
p257
aS'_divide'
p258
atp259
a(L82095446L
L1439814444L
(lp260
(lp261
S'_prepare_monty'
p262
aS'_nres'
p263
aS'_nres_powmod'
p264
aS'_redc'
p265
atp266
a(L1795816891L
L1650168448L
(lp267
(lp268
tp269
a(L2140119133L
L0L
(lp270
(lp271
tp272
a(L1994012262L
L0L
(lp273
(lp274
tp275
atp276
sL5584L
(S'_add'
p277
(lp278
(L425776429L
L0L
(lp279
(lp280
tp281
atp282
sL5648L
(S'_copy'
p283
(lp284
(L425776429L
L0L
(lp285
(lp286
tp287
atp288
sL5656L
(S'_mr_free'
p289
(lp290
(L425776429L
L0L
(lp291
(lp292
tp293
atp294
sL5660L
(S'_mirkill'
p295
(lp296
(L425776429L
L0L
(lp297
(lp298
tp299
atp300
sL5664L
(S'_mirvar'
p301
(lp302
(L425776429L
L0L
(lp303
(lp304
tp305
atp306
sL5616L
(S'_nres_modmult'
p307
(lp308
(L425776429L
L0L
(lp309
(lp310
tp311
atp312
sL5668L
(S'_mr_alloc'
p313
(lp314
(L425776429L
L0L
(lp315
(lp316
tp317
atp318
sL5672L
(S'_redc'
p319
(lp320
(L425776429L
L0L
(lp321
(lp322
tp323
atp324
sL5676L
(S'_prepare_monty'
p325
(lp326
(L425776429L
L0L
(lp327
(lp328
tp329
atp330
sL1456L
(S'_nres_powmod2'
p331
(lp332
(L1368311392L
L1650168448L
(lp333
(lp334
tp335
a(L3883340462L
L3230800020L
(lp336
(lp337
S'_copy'
p338
aS'_copy'
p339
aS'_copy'
p340
aS'_copy'
p341
aS'_zero'
p342
aS'_size'
p343
atp344
a(L2886367747L
L434665910L
(lp345
(lp346
S'_size'
p347
atp348
a(L2396856941L
L2614424152L
(lp349
(lp350
tp351
a(L783804241L
L1650168448L
(lp352
(lp353
tp354
a(L520110351L
L1912178190L
(lp355
(lp356
S'_mr_track'
p357
atp358
a(L895210373L
L2941833480L
(lp359
(lp360
S'_copy'
p361
aS'_size'
p362
atp363
a(L956437378L
L434665910L
(lp364
(lp365
S'_size'
p366
atp367
a(L835281186L
L1650168448L
(lp368
(lp369
tp370
a(L3776303745L
L434665910L
(lp371
(lp372
S'_size'
p373
atp374
a(L1800896754L
L434665910L
(lp375
(lp376
S'_size'
p377
atp378
a(L2215257106L
L3438772250L
(lp379
(lp380
S'_mr_berror'
p381
atp382
a(L3600499242L
L1650168448L
(lp383
(lp384
tp385
a(L3632477790L
L0L
(lp386
(lp387
tp388
a(L1316386042L
L0L
(lp389
(lp390
tp391
a(L1478776084L
L4238912928L
(lp392
(lp393
S'_nres_modmult'
p394
aS'_nres_modmult'
p395
aS'_nres_modmult'
p396
aS'_nres_modmult'
p397
aS'_nres_modmult'
p398
aS'_nres_modmult'
p399
aS'_nres_modmult'
p400
aS'_nres_modmult'
p401
aS'_nres_modmult'
p402
aS'_nres_modmult'
p403
aS'_nres_modmult'
p404
aS'_nres_modmult'
p405
aS'_logb2'
p406
aS'_logb2'
p407
atp408
a(L179779481L
L0L
(lp409
(lp410
tp411
a(L1254189029L
L0L
(lp412
(lp413
tp414
a(L3249209674L
L0L
(lp415
(lp416
tp417
a(L3104462892L
L0L
(lp418
(lp419
tp420
a(L716290132L
L1650168448L
(lp421
(lp422
tp423
a(L520110351L
L1650168448L
(lp424
(lp425
tp426
a(L2190197688L
L3438772250L
(lp427
(lp428
S'_mr_window2'
p429
atp430
a(L2571908762L
L3438772250L
(lp431
(lp432
S'_nres_modmult'
p433
atp434
a(L902741904L
L0L
(lp435
(lp436
tp437
a(L1880872707L
L3438772250L
(lp438
(lp439
S'_nres_modmult'
p440
atp441
a(L1860401990L
L0L
(lp442
(lp443
tp444
a(L1579257258L
L3438772250L
(lp445
(lp446
S'_nres_modmult'
p447
atp448
a(L4290324433L
L0L
(lp449
(lp450
tp451
a(L1649259031L
L1650168448L
(lp452
(lp453
tp454
a(L3195298213L
L3551412508L
(lp455
(lp456
S'_nres_modmult'
p457
aS'_mr_compare'
p458
atp459
a(L2401140481L
L0L
(lp460
(lp461
tp462
a(L1550667154L
L0L
(lp463
(lp464
tp465
a(L2606940999L
L2332948430L
(lp466
(lp467
S'_logb2'
p468
aS'_expb2'
p469
aS'_size'
p470
atp471
a(L251286763L
L1650168448L
(lp472
(lp473
tp474
a(L1868153140L
L0L
(lp475
(lp476
tp477
a(L296555137L
L1650168448L
(lp478
(lp479
tp480
a(L1028690784L
L3551412508L
(lp481
(lp482
S'_nres_modmult'
p483
aS'_mr_compare'
p484
atp485
a(L1889450095L
L1912178190L
(lp486
(lp487
S'_mr_compare'
p488
atp489
a(L686846570L
L2941833480L
(lp490
(lp491
S'_nres_modmult'
p492
aS'_subtract'
p493
atp494
a(L3752459277L
L3438772250L
(lp495
(lp496
S'_nres_modmult'
p497
atp498
a(L1745108179L
L434665910L
(lp499
(lp500
S'_subtract'
p501
atp502
a(L236938780L
L3438772250L
(lp503
(lp504
S'_mr_compare'
p505
atp506
a(L2524394067L
L1015000508L
(lp507
(lp508
S'_nres_modmult'
p509
aS'_subtract'
p510
atp511
a(L1279316688L
L1015000508L
(lp512
(lp513
S'_subdiv'
p514
aS'_size'
p515
atp516
a(L1427797912L
L1650168448L
(lp517
(lp518
tp519
a(L3695586368L
L0L
(lp520
(lp521
tp522
atp523
sL5684L
(S'_mr_sdiv'
p524
(lp525
(L425776429L
L0L
(lp526
(lp527
tp528
atp529
sL5688L
(S'_mad'
p530
(lp531
(L425776429L
L0L
(lp532
(lp533
tp534
atp535
sL5692L
(S'_normalise'
p536
(lp537
(L425776429L
L0L
(lp538
(lp539
tp540
atp541
sL5696L
(S'_subdivisible'
p542
(lp543
(L425776429L
L0L
(lp544
(lp545
tp546
atp547
sL5700L
(S'_sgcd'
p548
(lp549
(L425776429L
L0L
(lp550
(lp551
tp552
atp553
sL5704L
(S'_kill_monty'
p554
(lp555
(L425776429L
L0L
(lp556
(lp557
tp558
atp559
sL5708L
(S'_mr_window'
p560
(lp561
(L425776429L
L0L
(lp562
(lp563
tp564
atp565
sL3024L
(S'_powmod2'
p566
(lp567
(L3985540784L
L1650168448L
(lp568
(lp569
tp570
a(L3582075213L
L1650168448L
(lp571
(lp572
tp573
a(L3512197153L
L1650168448L
(lp574
(lp575
tp576
a(L1868153140L
L3438772250L
(lp577
(lp578
S'_mr_track'
p579
atp580
a(L3847713287L
L654929350L
(lp581
(lp582
S'_prepare_monty'
p583
aS'_nres'
p584
aS'_nres'
p585
aS'_nres_powmod2'
p586
aS'_redc'
p587
atp588
a(L425776429L
L0L
(lp589
(lp590
tp591
atp592
sL5588L
(S'_subdiv'
p593
(lp594
(L425776429L
L0L
(lp595
(lp596
tp597
atp598
sL5680L
(S'_mr_window2'
p599
(lp600
(L425776429L
L0L
(lp601
(lp602
tp603
atp604
sL5592L
(S'_subtract'
p605
(lp606
(L425776429L
L0L
(lp607
(lp608
tp609
atp610
sL5596L
(S'_mr_compare'
p611
(lp612
(L425776429L
L0L
(lp613
(lp614
tp615
atp616
sL3856L
(S'_powltr'
p617
(lp618
(L1233901628L
L1650168448L
(lp619
(lp620
tp621
a(L3221251116L
L0L
(lp622
(lp623
tp624
a(L1127135805L
L1650168448L
(lp625
(lp626
tp627
a(L1102680002L
L1650168448L
(lp628
(lp629
tp630
a(L520110351L
L1912178190L
(lp631
(lp632
S'_mr_track'
p633
atp634
a(L2172753708L
L0L
(lp635
(lp636
tp637
a(L3250144657L
L3438772250L
(lp638
(lp639
S'_size'
p640
atp641
a(L3380180506L
L434665910L
(lp642
(lp643
S'_sgcd'
p644
atp645
a(L3249209674L
L0L
(lp646
(lp647
tp648
a(L1641441331L
L3438772250L
(lp649
(lp650
S'_subdivisible'
p651
atp652
a(L1769152852L
L0L
(lp653
(lp654
tp655
a(L1204419490L
L0L
(lp656
(lp657
tp658
a(L1267638962L
L434665910L
(lp659
(lp660
S'_size'
p661
atp662
a(L1559202073L
L434665910L
(lp663
(lp664
S'_mr_compare'
p665
atp666
a(L1559951351L
L449713974L
(lp667
(lp668
S'_prepare_monty'
p669
aS'_nres_powltr'
p670
aS'_redc'
p671
atp672
a(L1868153140L
L3438772250L
(lp673
(lp674
S'_kill_monty'
p675
atp676
a(L575502772L
L434665910L
(lp677
(lp678
S'_size'
p679
atp680
a(L2146872317L
L0L
(lp681
(lp682
tp683
a(L2074987770L
L3872313376L
(lp684
(lp685
S'_copy'
p686
aS'_zero'
p687
atp688
a(L3804707085L
L1650168448L
(lp689
(lp690
tp691
a(L4112962557L
L3551412508L
(lp692
(lp693
S'_convert'
p694
aS'_size'
p695
atp696
a(L1893020282L
L0L
(lp697
(lp698
tp699
a(L2100327954L
L3438772250L
(lp700
(lp701
S'_size'
p702
atp703
a(L2215257106L
L3438772250L
(lp704
(lp705
S'_mr_berror'
p706
atp707
a(L1639800627L
L0L
(lp708
(lp709
tp710
a(L883222028L
L3438772250L
(lp711
(lp712
S'_mr_berror'
p713
atp714
a(L489289533L
L1650168448L
(lp715
(lp716
tp717
a(L1741000890L
L0L
(lp718
(lp719
tp720
a(L1709982611L
L779279096L
(lp721
(lp722
S'_normalise'
p723
aS'_logb2'
p724
aS'_expb2'
p725
aS'_size'
p726
atp727
a(L423385090L
L1650168448L
(lp728
(lp729
tp730
a(L1868153140L
L0L
(lp731
(lp732
tp733
a(L3823926016L
L1650168448L
(lp734
(lp735
tp736
a(L3119632346L
L2941833480L
(lp737
(lp738
S'_mad'
p739
aS'_mr_compare'
p740
atp741
a(L468908239L
L2332948430L
(lp742
(lp743
S'_premult'
p744
aS'_divide'
p745
aS'_subtract'
p746
atp747
a(L1017140489L
L1015000508L
(lp748
(lp749
S'_subdiv'
p750
aS'_size'
p751
atp752
a(L3371605109L
L0L
(lp753
(lp754
tp755
a(L1778665869L
L1354249480L
(lp756
(lp757
S'_mr_sdiv'
p758
aS'_divide'
p759
atp760
atp761
sL5600L
(S'_expb2'
p762
(lp763
(L425776429L
L0L
(lp764
(lp765
tp766
atp767
sL720L
(S'_nres_powmodn'
p768
(lp769
(L3075057348L
L1650168448L
(lp770
(lp771
tp772
a(L278480694L
L1650168448L
(lp773
(lp774
tp775
a(L4246449768L
L1650168448L
(lp776
(lp777
tp778
a(L1868153140L
L3438772250L
(lp779
(lp780
S'_mr_track'
p781
atp782
a(L3218259119L
L3438772250L
(lp783
(lp784
S'_mr_alloc'
p785
atp786
a(L312592725L
L0L
(lp787
(lp788
tp789
a(L145973076L
L0L
(lp790
(lp791
tp792
a(L4090831389L
L0L
(lp793
(lp794
tp795
a(L3523529704L
L3438772250L
(lp796
(lp797
S'_mirvar'
p798
atp799
a(L145221026L
L3438772250L
(lp800
(lp801
S'_copy'
p802
atp803
a(L3363026051L
L3438772250L
(lp804
(lp805
S'_nres_modmult'
p806
atp807
a(L913140468L
L0L
(lp808
(lp809
tp810
a(L1196999517L
L0L
(lp811
(lp812
tp813
a(L2409703981L
L0L
(lp814
(lp815
tp816
a(L189697856L
L0L
(lp817
(lp818
tp819
a(L1315864634L
L0L
(lp820
(lp821
tp822
a(L1519566275L
L0L
(lp823
(lp824
tp825
a(L439232690L
L3438772250L
(lp826
(lp827
S'_logb2'
p828
atp829
a(L179779481L
L0L
(lp830
(lp831
tp832
a(L1632998645L
L0L
(lp833
(lp834
tp835
a(L4122901986L
L4079538650L
(lp836
(lp837
S'_copy'
p838
atp839
a(L2112761735L
L0L
(lp840
(lp841
tp842
a(L3249209674L
L0L
(lp843
(lp844
tp845
a(L1795816891L
L1650168448L
(lp846
(lp847
tp848
a(L678392971L
L0L
(lp849
(lp850
tp851
a(L1868153140L
L0L
(lp852
(lp853
tp854
a(L1875249699L
L0L
(lp855
(lp856
tp857
a(L1519566275L
L0L
(lp858
(lp859
tp860
a(L1504241545L
L3438772250L
(lp861
(lp862
S'_mr_testbit'
p863
atp864
a(L3921119569L
L0L
(lp865
(lp866
tp867
a(L470510228L
L0L
(lp868
(lp869
tp870
a(L1592566510L
L0L
(lp871
(lp872
tp873
a(L1603684517L
L3438772250L
(lp874
(lp875
S'_nres_modmult'
p876
atp877
a(L3850229841L
L3438772250L
(lp878
(lp879
S'_nres_modmult'
p880
atp881
a(L1212052134L
L0L
(lp882
(lp883
tp884
a(L2441619294L
L0L
(lp885
(lp886
tp887
a(L2512760270L
L3438772250L
(lp888
(lp889
S'_mr_berror'
p890
atp891
a(L3266329097L
L0L
(lp892
(lp893
tp894
a(L14832055L
L0L
(lp895
(lp896
tp897
a(L619000559L
L3438772250L
(lp898
(lp899
S'_mirkill'
p900
atp901
a(L714385141L
L1912178190L
(lp902
(lp903
S'_mr_free'
p904
atp905
a(L1281538756L
L0L
(lp906
(lp907
tp908
atp909
sL5604L
(S'_divide'
p910
(lp911
(L425776429L
L0L
(lp912
(lp913
tp914
atp915
sL5608L
(S'_premult'
p916
(lp917
(L425776429L
L0L
(lp918
(lp919
tp920
atp921
sL5612L
(S'_mr_testbit'
p922
(lp923
(L425776429L
L0L
(lp924
(lp925
tp926
atp927
sL1264L
(S'_powmodn'
p928
(lp929
(L3985540784L
L1650168448L
(lp930
(lp931
tp932
a(L3972579996L
L1650168448L
(lp933
(lp934
tp935
a(L1228380027L
L1650168448L
(lp936
(lp937
tp938
a(L1868153140L
L3438772250L
(lp939
(lp940
S'_mr_track'
p941
atp942
a(L3579933443L
L3438772250L
(lp943
(lp944
S'_prepare_monty'
p945
atp946
a(L210201239L
L0L
(lp947
(lp948
tp949
a(L801020099L
L3438772250L
(lp950
(lp951
S'_nres'
p952
atp953
a(L575706074L
L0L
(lp954
(lp955
tp956
a(L4140475155L
L3438772250L
(lp957
(lp958
S'_nres_powmodn'
p959
atp960
a(L3949061511L
L3438772250L
(lp961
(lp962
S'_redc'
p963
atp964
a(L2657936576L
L1912178190L
(lp965
(lp966
S'_redc'
p967
atp968
a(L425776429L
L0L
(lp969
(lp970
tp971
atp972
sL5620L
(S'_nres'
p973
(lp974
(L425776429L
L0L
(lp975
(lp976
tp977
atp978
sL4624L
(S'_nres_powmod'
p979
(lp980
(L4170235272L
L1650168448L
(lp981
(lp982
tp983
a(L1873395488L
L3152541604L
(lp984
(lp985
S'_copy'
p986
aS'_copy'
p987
atp988
a(L1071778997L
L1650168448L
(lp989
(lp990
tp991
a(L1868153140L
L3438772250L
(lp992
(lp993
S'_mr_track'
p994
atp995
a(L1986326359L
L1354249480L
(lp996
(lp997
S'_zero'
p998
aS'_size'
p999
atp1000
a(L3791609010L
L434665910L
(lp1001
(lp1002
S'_size'
p1003
atp1004
a(L3978488542L
L434665910L
(lp1005
(lp1006
S'_copy'
p1007
atp1008
a(L1795816891L
L1650168448L
(lp1009
(lp1010
tp1011
a(L2140119133L
L0L
(lp1012
(lp1013
tp1014
a(L3828268210L
L0L
(lp1015
(lp1016
tp1017
a(L1015294660L
L1015000508L
(lp1018
(lp1019
S'_copy'
p1020
aS'_size'
p1021
atp1022
a(L3059512139L
L434665910L
(lp1023
(lp1024
S'_size'
p1025
atp1026
a(L2215257106L
L3438772250L
(lp1027
(lp1028
S'_mr_berror'
p1029
atp1030
a(L2291497513L
L1650168448L
(lp1031
(lp1032
tp1033
a(L583524880L
L0L
(lp1034
(lp1035
tp1036
a(L206543158L
L3438772250L
(lp1037
(lp1038
S'_nres_modmult'
p1039
atp1040
a(L2404342940L
L0L
(lp1041
(lp1042
tp1043
a(L1743964947L
L0L
(lp1044
(lp1045
tp1046
a(L2592453399L
L0L
(lp1047
(lp1048
tp1049
a(L2598736945L
L3438772250L
(lp1050
(lp1051
S'_copy'
p1052
atp1053
a(L3194722928L
L434665910L
(lp1054
(lp1055
S'_nres_modmult'
p1056
atp1057
a(L2666281406L
L0L
(lp1058
(lp1059
tp1060
a(L1319110021L
L1015000508L
(lp1061
(lp1062
S'_logb2'
p1063
aS'_copy'
p1064
atp1065
a(L734393073L
L1504367734L
(lp1066
L4294967294L
a(lp1067
tp1068
a(L3698982887L
L1650168448L
(lp1069
(lp1070
tp1071
a(L1868153140L
L0L
(lp1072
(lp1073
tp1074
a(L3843490387L
L434665910L
(lp1075
(lp1076
S'_mr_window'
p1077
atp1078
a(L2471903200L
L3438772250L
(lp1079
(lp1080
S'_nres_modmult'
p1081
atp1082
a(L2637043466L
L0L
(lp1083
(lp1084
tp1085
a(L3927031136L
L3438772250L
(lp1086
(lp1087
S'_nres_modmult'
p1088
atp1089
a(L1129856302L
L0L
(lp1090
(lp1091
tp1092
a(L4013923302L
L0L
(lp1093
(lp1094
tp1095
a(L1066186492L
L3438772250L
(lp1096
(lp1097
S'_nres_modmult'
p1098
atp1099
a(L1160288644L
L0L
(lp1100
(lp1101
tp1102
a(L4290324433L
L0L
(lp1103
(lp1104
tp1105
a(L3034653187L
L1650168448L
(lp1106
(lp1107
tp1108
a(L3427317710L
L3438772250L
(lp1109
(lp1110
S'_copy'
p1111
atp1112
a(L4158689346L
L1650168448L
(lp1113
(lp1114
tp1115
a(L1868153140L
L0L
(lp1116
(lp1117
tp1118
a(L223400444L
L434665910L
(lp1119
(lp1120
S'_subdiv'
p1121
atp1122
a(L1399118500L
L434665910L
(lp1123
(lp1124
S'_nres_modmult'
p1125
atp1126
a(L2291497513L
L1650168448L
(lp1127
(lp1128
tp1129
a(L149142897L
L3438772250L
(lp1130
(lp1131
S'_size'
p1132
atp1133
a(L76410392L
L434665910L
(lp1134
(lp1135
S'_nres_modmult'
p1136
atp1137
atp1138
sL5624L
(S'_convert'
p1139
(lp1140
(L425776429L
L0L
(lp1141
(lp1142
tp1143
atp1144
sL5628L
(S'_logb2'
p1145
(lp1146
(L425776429L
L0L
(lp1147
(lp1148
tp1149
atp1150
ssS'fuzzydups'
p1151
c__builtin__
set
p1152
((lp1153
tp1154
Rp1155
sS'stringdups'
p1156
g1152
((lp1157
tp1158
Rp1159
sS'immediates'
p1160
(dp1161
sS'formaldups'
p1162
g1152
((lp1163
tp1164
Rp1165
sS'immediatedups'
p1166
g1152
((lp1167
tp1168
Rp1169
sS'fuzzy'
p1170
(dp1171
L4083940776L
L1456L
sL1179905545L
L3216L
sL2186407566L
L3856L
sL2960381361L
L3024L
sL136773022L
L0L
sL4114817014L
L4624L
sL3175232314L
L720L
sL1462780638L
L1264L
ssS'strings'
p1172
(dp1173
sS'formal'
p1174
(dp1175
L1853384192L
L720L
sL2097484144L
L4624L
sL732056454L
L3024L
sL2615053962L
L1264L
sL2284649456L
L0L
sL2988584050L
L1456L
sL4087214551L
L3216L
sL432701662L
L3856L
ssb.