ccopy_reg
_reconstructor
p0
(c__main__
RizzoSignatures
p1
c__builtin__
object
p2
Ntp3
Rp4
(dp5
S'functions'
p6
(dp7
L0L
(S'_gprime'
p8
(lp9
(L3401534617L
L1650168448L
(lp10
(lp11
tp12
a(L1615436821L
L0L
(lp13
(lp14
tp15
a(L2944100111L
L0L
(lp16
(lp17
tp18
a(L797980698L
L1912178190L
(lp19
(lp20
S'_mr_free'
p21
atp22
a(L3217795473L
L0L
(lp23
(lp24
tp25
a(L3309230818L
L1650168448L
(lp26
(lp27
tp28
a(L1516937009L
L1650168448L
(lp29
(lp30
tp31
a(L1868153140L
L3438772250L
(lp32
(lp33
S'_mr_track'
p34
atp35
a(L2206986448L
L3667354999L
(lp36
L1073741824L
a(lp37
tp38
a(L869179991L
L1912178190L
(lp39
(lp40
S'_mr_berror'
p41
atp42
a(L3385321680L
L0L
(lp43
(lp44
tp45
a(L1265857721L
L0L
(lp46
(lp47
tp48
a(L368985175L
L3438772250L
(lp49
(lp50
S'_mr_alloc'
p51
atp52
a(L388532832L
L1912178190L
(lp53
(lp54
S'_mr_berror'
p55
atp56
a(L3476993315L
L0L
(lp57
(lp58
tp59
a(L90008085L
L2662749297L
(lp60
L16843009L
a(lp61
tp62
a(L1810413312L
L0L
(lp63
(lp64
tp65
a(L3076547394L
L0L
(lp66
(lp67
tp68
a(L1462821709L
L0L
(lp69
(lp70
tp71
a(L3211451498L
L0L
(lp72
(lp73
tp74
a(L4288863078L
L0L
(lp75
(lp76
tp77
a(L1888027557L
L0L
(lp78
(lp79
tp80
a(L2381936008L
L0L
(lp81
(lp82
tp83
a(L1339508122L
L1650168448L
(lp84
(lp85
tp86
a(L2926999285L
L3438772250L
(lp87
(lp88
S'_mr_free'
p89
atp90
a(L1339687290L
L609169042L
(lp91
(lp92
S'_mr_alloc'
p93
atp94
a(L624917568L
L3504974572L
(lp95
(lp96
S'_mr_free'
p97
aS'_mr_berror'
p98
atp99
a(L4003607508L
L0L
(lp100
(lp101
tp102
a(L3076547394L
L0L
(lp103
(lp104
tp105
a(L1751841230L
L0L
(lp106
(lp107
tp108
a(L2231961773L
L1650168448L
(lp109
(lp110
tp111
a(L1639945802L
L0L
(lp112
(lp113
tp114
a(L510748551L
L4079538650L
(lp115
(lp116
S'_mr_free'
p117
atp118
a(L1994012262L
L0L
(lp119
(lp120
tp121
atp122
sL1856L
(S'_nxsafeprime'
p123
(lp124
(L3861406372L
L1650168448L
(lp125
(lp126
tp127
a(L2110596432L
L0L
(lp128
(lp129
tp130
a(L3738563475L
L1650168448L
(lp131
(lp132
tp133
a(L2233999510L
L1650168448L
(lp134
(lp135
tp136
a(L1868153140L
L3438772250L
(lp137
(lp138
S'_mr_track'
p139
atp140
a(L2643177808L
L1354249480L
(lp141
(lp142
S'_copy'
p143
aS'_remain'
p144
atp145
a(L2385371757L
L3990344595L
(lp146
L2147483651L
a(lp147
tp148
a(L2849781403L
L1504367728L
(lp149
L4294967292L
a(lp150
tp151
a(L2613421101L
L0L
(lp152
(lp153
tp154
a(L2752580287L
L0L
(lp155
(lp156
tp157
a(L421867246L
L0L
(lp158
(lp159
tp160
a(L235221122L
L3438772250L
(lp161
(lp162
S'_incr'
p163
atp164
a(L2292479647L
L0L
(lp165
(lp166
tp167
a(L2054223442L
L3438772250L
(lp168
(lp169
S'_incr'
p170
atp171
a(L4032263547L
L0L
(lp172
(lp173
tp174
a(L2357241L
L0L
(lp175
(lp176
tp177
a(L4102669248L
L0L
(lp178
(lp179
tp180
a(L2475844701L
L0L
(lp181
(lp182
tp183
a(L2942508337L
L0L
(lp184
(lp185
tp186
a(L421867246L
L0L
(lp187
(lp188
tp189
a(L1107150866L
L0L
(lp190
(lp191
tp192
a(L3124211775L
L0L
(lp193
(lp194
tp195
a(L2357241L
L0L
(lp196
(lp197
tp198
a(L66301102L
L0L
(lp199
(lp200
tp201
a(L3738730626L
L0L
(lp202
(lp203
tp204
a(L2317357002L
L0L
(lp205
(lp206
tp207
a(L3076547396L
L0L
(lp208
(lp209
tp210
a(L786496080L
L0L
(lp211
(lp212
tp213
a(L1220631864L
L3438772250L
(lp214
(lp215
S'_incr'
p216
atp217
a(L2593683811L
L0L
(lp218
(lp219
tp220
a(L2791122472L
L434665910L
(lp221
(lp222
S'_decr'
p223
atp224
a(L3680640087L
L434665910L
(lp225
(lp226
S'_incr'
p227
atp228
a(L1602468509L
L434665910L
(lp229
(lp230
S'_subdiv'
p231
atp232
a(L2999329760L
L1650168448L
(lp233
(lp234
tp235
a(L512392224L
L0L
(lp236
(lp237
tp238
a(L177828097L
L2993483802L
(lp239
(lp240
S'_incr'
p241
aS'_incr'
p242
aS'_trial_division'
p243
atp244
a(L170735004L
L434665910L
(lp245
(lp246
S'_trial_division'
p247
atp248
a(L713537889L
L434665910L
(lp249
(lp250
S'_isprime'
p251
atp252
a(L2004978375L
L3438772250L
(lp253
(lp254
S'_isprime'
p255
atp256
a(L3249209674L
L0L
(lp257
(lp258
tp259
a(L2774854429L
L1650168448L
(lp260
(lp261
tp262
a(L2651683741L
L1650168448L
(lp263
(lp264
tp265
atp266
sL2456L
(S'_powltr'
p267
(lp268
(L425776429L
L0L
(lp269
(lp270
tp271
atp272
sL928L
(S'_isprime'
p273
(lp274
(L3974951574L
L1650168448L
(lp275
(lp276
tp277
a(L4249153361L
L3438772250L
(lp278
(lp279
S'_size'
p280
atp281
a(L1890591993L
L0L
(lp282
(lp283
tp284
a(L1182507558L
L2614424152L
(lp285
(lp286
tp287
a(L4149528280L
L1650168448L
(lp288
(lp289
tp290
a(L1868153140L
L3438772250L
(lp291
(lp292
S'_mr_track'
p293
atp294
a(L2789767103L
L3438772250L
(lp295
(lp296
S'_trial_division'
p297
atp298
a(L362819312L
L1650168448L
(lp299
(lp300
tp301
a(L263803138L
L0L
(lp302
(lp303
tp304
a(L299004453L
L1015000508L
(lp305
(lp306
S'_decr'
p307
aS'_subdiv'
p308
atp309
a(L2679250255L
L1015000508L
(lp310
(lp311
S'_copy'
p312
aS'_subdiv'
p313
atp314
a(L2804618260L
L0L
(lp315
(lp316
tp317
a(L3840345963L
L1650168448L
(lp318
(lp319
tp320
a(L3380277604L
L0L
(lp321
(lp322
tp323
a(L1106711594L
L3438772250L
(lp324
(lp325
S'_logb2'
p326
atp327
a(L4227773667L
L0L
(lp328
(lp329
tp330
a(L126232008L
L0L
(lp331
(lp332
tp333
a(L2404342940L
L0L
(lp334
(lp335
tp336
a(L107752262L
L733352071L
(lp337
L3221225471L
a(lp338
S'_brand'
p339
atp340
a(L3789328662L
L753740030L
(lp341
L3221225472L
a(lp342
tp343
a(L103406961L
L1242608605L
(lp344
L1073741824L
a(lp345
S'_size'
p346
atp347
a(L3131271399L
L3438772250L
(lp348
(lp349
S'_size'
p350
atp351
a(L2502259190L
L0L
(lp352
(lp353
tp354
a(L3343570860L
L1015000508L
(lp355
(lp356
S'_powltr'
p357
aS'_decr'
p358
atp359
a(L8512607L
L0L
(lp360
(lp361
tp362
a(L854614564L
L434665910L
(lp363
(lp364
S'_size'
p365
atp366
a(L3322232260L
L434665910L
(lp367
(lp368
S'_mr_compare'
p369
atp370
a(L1017543416L
L0L
(lp371
(lp372
tp373
a(L1685834040L
L434665910L
(lp374
(lp375
S'_size'
p376
atp377
a(L3380903916L
L0L
(lp378
(lp379
tp380
a(L1511766956L
L434665910L
(lp381
(lp382
S'_mad'
p383
atp384
a(L2999329760L
L1650168448L
(lp385
(lp386
tp387
a(L512392224L
L0L
(lp388
(lp389
tp390
a(L1316615402L
L0L
(lp391
(lp392
tp393
a(L3110991158L
L1650168448L
(lp394
(lp395
tp396
a(L162178437L
L0L
(lp397
(lp398
tp399
atp400
sL2436L
(S'_subdiv'
p401
(lp402
(L425776429L
L0L
(lp403
(lp404
tp405
atp406
sL2440L
(S'_copy'
p407
(lp408
(L425776429L
L0L
(lp409
(lp410
tp411
atp412
sL2460L
(S'_brand'
p413
(lp414
(L425776429L
L0L
(lp415
(lp416
tp417
atp418
sL2476L
(S'_convert'
p419
(lp420
(L425776429L
L0L
(lp421
(lp422
tp423
atp424
sL2468L
(S'_decr'
p425
(lp426
(L425776429L
L0L
(lp427
(lp428
tp429
atp430
sL2444L
(S'_size'
p431
(lp432
(L425776429L
L0L
(lp433
(lp434
tp435
atp436
sL496L
(S'_trial_division'
p437
(lp438
(L1233901628L
L1650168448L
(lp439
(lp440
tp441
a(L3221251116L
L0L
(lp442
(lp443
tp444
a(L1635047921L
L3438772250L
(lp445
(lp446
S'_size'
p447
atp448
a(L3221251116L
L0L
(lp449
(lp450
tp451
a(L1182507558L
L2614424152L
(lp452
(lp453
tp454
a(L2456226318L
L1650168448L
(lp455
(lp456
tp457
a(L1868153140L
L3438772250L
(lp458
(lp459
S'_mr_track'
p460
atp461
a(L1416965735L
L1912178190L
(lp462
(lp463
S'_copy'
p464
atp465
a(L1442191523L
L1912178190L
(lp466
(lp467
S'_gprime'
p468
atp469
a(L2521564588L
L0L
(lp470
(lp471
tp472
a(L1769152852L
L0L
(lp473
(lp474
tp475
a(L2955408571L
L3438772250L
(lp476
(lp477
S'_subdiv'
p478
atp479
a(L3995624045L
L0L
(lp480
(lp481
tp482
a(L1666832382L
L434665910L
(lp483
(lp484
S'_size'
p485
atp486
a(L847585954L
L1015000508L
(lp487
(lp488
S'_copy'
p489
aS'_subdiv'
p490
atp491
a(L2368169035L
L434665910L
(lp492
(lp493
S'_size'
p494
atp495
a(L286765581L
L1650168448L
(lp496
(lp497
tp498
a(L1263997185L
L0L
(lp499
(lp500
tp501
a(L2875688048L
L2640012870L
(lp502
(lp503
S'_size'
p504
atp505
a(L2389947221L
L1650168448L
(lp506
(lp507
tp508
atp509
sL2416L
(S'_mr_alloc'
p510
(lp511
(L425776429L
L0L
(lp512
(lp513
tp514
atp515
sL2448L
(S'_mad'
p516
(lp517
(L425776429L
L0L
(lp518
(lp519
tp520
atp521
sL2464L
(S'_logb2'
p522
(lp523
(L425776429L
L0L
(lp524
(lp525
tp526
atp527
sL2420L
(S'_mr_berror'
p528
(lp529
(L425776429L
L0L
(lp530
(lp531
tp532
atp533
sL1584L
(S'_nxprime'
p534
(lp535
(L644269001L
L1650168448L
(lp536
(lp537
tp538
a(L133851771L
L0L
(lp539
(lp540
tp541
a(L3738563475L
L1650168448L
(lp542
(lp543
tp544
a(L125215101L
L1650168448L
(lp545
(lp546
tp547
a(L1868153140L
L3438772250L
(lp548
(lp549
S'_mr_track'
p550
atp551
a(L3513045627L
L1354249480L
(lp552
(lp553
S'_copy'
p554
aS'_size'
p555
atp556
a(L301814185L
L3438772250L
(lp557
(lp558
S'_convert'
p559
atp560
a(L4278835742L
L1650168448L
(lp561
(lp562
tp563
a(L4235825628L
L434665910L
(lp564
(lp565
S'_subdiv'
p566
atp567
a(L3080819838L
L0L
(lp568
(lp569
tp570
a(L4276588227L
L0L
(lp571
(lp572
tp573
a(L1260633054L
L1354249480L
(lp574
(lp575
S'_incr'
p576
aS'_isprime'
p577
atp578
a(L413984496L
L1912178190L
(lp579
(lp580
S'_incr'
p581
atp582
a(L512392224L
L0L
(lp583
(lp584
tp585
a(L2888590780L
L3438772250L
(lp586
(lp587
S'_isprime'
p588
atp589
a(L4278835742L
L1650168448L
(lp590
(lp591
tp592
a(L1922031694L
L1650168448L
(lp593
(lp594
tp595
atp596
sL2424L
(S'_mr_track'
p597
(lp598
(L425776429L
L0L
(lp599
(lp600
tp601
atp602
sL2452L
(S'_mr_compare'
p603
(lp604
(L425776429L
L0L
(lp605
(lp606
tp607
atp608
sL2472L
(S'_incr'
p609
(lp610
(L425776429L
L0L
(lp611
(lp612
tp613
atp614
sL2428L
(S'_mr_free'
p615
(lp616
(L425776429L
L0L
(lp617
(lp618
tp619
atp620
sL2480L
(S'_remain'
p621
(lp622
(L425776429L
L0L
(lp623
(lp624
tp625
atp626
ssS'fuzzydups'
p627
c__builtin__
set
p628
((lp629
tp630
Rp631
sS'stringdups'
p632
g628
((lp633
tp634
Rp635
sS'immediates'
p636
(dp637
L3221225472L
L928L
sL16843009L
L0L
sL2147483651L
L1856L
sL4294967292L
L1856L
sL3221225471L
L928L
ssS'formaldups'
p638
g628
((lp639
tp640
Rp641
sS'immediatedups'
p642
g628
((lp643
tp644
Rp645
sS'fuzzy'
p646
(dp647
L3156396099L
L0L
sL139234414L
L928L
sL1683820434L
L496L
sL3372043321L
L1584L
sL1444775740L
L1856L
ssS'strings'
p648
(dp649
sS'formal'
p650
(dp651
L463870661L
L1584L
sL625782442L
L928L
sL3619836878L
L0L
sL4281713150L
L496L
sL3681377342L
L1856L
ssb.