ccopy_reg
_reconstructor
p0
(c__main__
RizzoSignatures
p1
c__builtin__
object
p2
Ntp3
Rp4
(dp5
S'functions'
p6
(dp7
L0L
(S'_mround'
p8
(lp9
(L1806946499L
L1650168448L
(lp10
(lp11
tp12
a(L3939254758L
L3438772250L
(lp13
(lp14
S'_size'
p15
atp16
a(L2025277927L
L3438772250L
(lp17
(lp18
S'_zero'
p19
atp20
a(L1182507558L
L2614424152L
(lp21
(lp22
tp23
a(L2220951782L
L1650168448L
(lp24
(lp25
tp26
a(L1868153140L
L3438772250L
(lp27
(lp28
S'_mr_track'
p29
atp30
a(L3497988578L
L3438772250L
(lp31
(lp32
S'_size'
p33
atp34
a(L4216516296L
L1912178190L
(lp35
(lp36
S'_mr_berror'
p37
atp38
a(L98767378L
L2196326906L
(lp39
(lp40
S'_copy'
p41
aS'_copy'
p42
aS'_exsign'
p43
aS'_exsign'
p44
aS'_insign'
p45
aS'_insign'
p46
aS'_mr_compare'
p47
atp48
a(L153339132L
L1912178190L
(lp49
(lp50
S'_convert'
p51
atp52
a(L37669689L
L434665910L
(lp53
(lp54
S'_size'
p55
atp56
a(L2835111024L
L1650168448L
(lp57
(lp58
tp59
a(L4216516296L
L1912178190L
(lp60
(lp61
S'_mr_berror'
p62
atp63
a(L1208482362L
L3438772250L
(lp64
(lp65
S'_copy'
p66
atp67
a(L1943708855L
L434665910L
(lp68
(lp69
S'_build'
p70
atp71
a(L898214584L
L1912178190L
(lp72
(lp73
S'_insign'
p74
atp75
a(L2222856904L
L0L
(lp76
(lp77
tp78
atp79
sL1904L
(S'_build'
p80
(lp81
(L425776429L
L0L
(lp82
(lp83
tp84
atp85
sL1920L
(S'_exsign'
p86
(lp87
(L425776429L
L0L
(lp88
(lp89
tp90
atp91
sL1952L
(S'_premult'
p92
(lp93
(L425776429L
L0L
(lp94
(lp95
tp96
atp97
sL1924L
(S'_copy'
p98
(lp99
(L425776429L
L0L
(lp100
(lp101
tp102
atp103
sL1928L
(S'_mr_berror'
p104
(lp105
(L425776429L
L0L
(lp106
(lp107
tp108
atp109
sL1948L
(S'_add'
p110
(lp111
(L425776429L
L0L
(lp112
(lp113
tp114
atp115
sL1964L
(S'_muldiv'
p116
(lp117
(L425776429L
L0L
(lp118
(lp119
tp120
atp121
sL1932L
(S'_mr_track'
p122
(lp123
(L425776429L
L0L
(lp124
(lp125
tp126
atp127
sL464L
(S'_euclid'
p128
(lp129
(L3627949278L
L1650168448L
(lp130
(lp131
tp132
a(L2392130491L
L306889143L
(lp133
L4294967295L
a(lp134
S'_mr_compare'
p135
atp136
a(L1684592607L
L2614424152L
(lp137
(lp138
tp139
a(L2108460829L
L0L
(lp140
(lp141
tp142
a(L448847409L
L0L
(lp143
(lp144
tp145
a(L111814739L
L1650168448L
(lp146
(lp147
tp148
a(L1920291998L
L3438772250L
(lp149
(lp150
S'_size'
p151
atp152
a(L1538239287L
L2669712231L
(lp153
L4294967295L
a(lp154
tp155
a(L4243671346L
L1756466324L
(lp156
(lp157
tp158
a(L3743902494L
L2614424152L
(lp159
(lp160
tp161
a(L2189113676L
L0L
(lp162
(lp163
tp164
a(L2700181038L
L0L
(lp165
(lp166
tp167
a(L1593961223L
L1650168448L
(lp168
(lp169
tp170
a(L1716281781L
L2721549804L
(lp171
(lp172
S'_muldvm'
p173
aS'_muldvm'
p174
atp175
a(L3808994921L
L2721549804L
(lp176
(lp177
S'_muldiv'
p178
aS'_muldiv'
p179
atp180
a(L2198357198L
L432033468L
(lp181
(lp182
tp183
a(L367792686L
L0L
(lp184
(lp185
tp186
a(L173870045L
L0L
(lp187
(lp188
tp189
a(L3312743802L
L1504367735L
(lp190
L4294967295L
a(lp191
tp192
a(L1670831200L
L0L
(lp193
(lp194
tp195
a(L223657417L
L0L
(lp196
(lp197
tp198
a(L210471182L
L0L
(lp199
(lp200
tp201
a(L4037786679L
L0L
(lp202
(lp203
tp204
a(L3859309133L
L0L
(lp205
(lp206
tp207
a(L2881385518L
L0L
(lp208
(lp209
tp210
a(L4033316799L
L3667354999L
(lp211
L1073741824L
a(lp212
tp213
a(L1409176039L
L3533149520L
(lp214
(lp215
tp216
a(L1578389342L
L2614424152L
(lp217
(lp218
tp219
a(L715711774L
L2721549804L
(lp220
(lp221
S'_divide'
p222
aS'_mr_lent'
p223
atp224
a(L2240647881L
L1504367734L
(lp225
L4294967294L
a(lp226
tp227
a(L3853453140L
L3753689248L
(lp228
(lp229
S'_copy'
p230
aS'_size'
p231
atp232
a(L47311434L
L124570588L
(lp233
(lp234
S'_premult'
p235
aS'_premult'
p236
aS'_premult'
p237
aS'_premult'
p238
aS'_add'
p239
aS'_add'
p240
atp241
a(L1694812150L
L0L
(lp242
(lp243
tp244
atp245
sL1960L
(S'_divide'
p246
(lp247
(L425776429L
L0L
(lp248
(lp249
tp250
atp251
sL1908L
(S'_convert'
p252
(lp253
(L425776429L
L0L
(lp254
(lp255
tp256
atp257
sL1968L
(S'_muldvm'
p258
(lp259
(L425776429L
L0L
(lp260
(lp261
tp262
atp263
sL1912L
(S'_mr_compare'
p264
(lp265
(L425776429L
L0L
(lp266
(lp267
tp268
atp269
sL1940L
(S'_size'
p270
(lp271
(L425776429L
L0L
(lp272
(lp273
tp274
atp275
sL1956L
(S'_mr_lent'
p276
(lp277
(L425776429L
L0L
(lp278
(lp279
tp280
atp281
sL1916L
(S'_insign'
p282
(lp283
(L425776429L
L0L
(lp284
(lp285
tp286
atp287
sL1936L
(S'_zero'
p288
(lp289
(L425776429L
L0L
(lp290
(lp291
tp292
atp293
ssS'fuzzydups'
p294
c__builtin__
set
p295
((lp296
tp297
Rp298
sS'stringdups'
p299
g295
((lp300
tp301
Rp302
sS'immediates'
p303
(dp304
L1073741824L
L464L
sL4294967294L
L464L
ssS'formaldups'
p305
g295
((lp306
tp307
Rp308
sS'immediatedups'
p309
g295
((lp310
tp311
Rp312
sS'fuzzy'
p313
(dp314
L2019872801L
L464L
sL2097471716L
L0L
ssS'strings'
p315
(dp316
sS'formal'
p317
(dp318
L869051818L
L0L
sL3945707405L
L464L
ssb.