ccopy_reg
_reconstructor
p0
(c__main__
RizzoSignatures
p1
c__builtin__
object
p2
Ntp3
Rp4
(dp5
S'functions'
p6
(dp7
L640L
(S'_shs512_init'
p8
(lp9
(L2098615722L
L4010740234L
(lp10
L4089235720L
aL2227873595L
aL4271175723L
aL1595750129L
aL2917565137L
aL725511199L
aL4215389547L
aL327033209L
aL1779033703L
aL3144134277L
aL1013904242L
aL2773480762L
aL1359893119L
aL2600822924L
aL528734635L
aL1541459225L
a(lp11
tp12
atp13
sL800L
(S'_shs384_init'
p14
(lp15
(L1668556123L
L2390472238L
(lp16
L3238371032L
aL914150663L
aL812702999L
aL4144912697L
aL4290775857L
aL1750603025L
aL1694076839L
aL3204075428L
aL3418070365L
aL1654270250L
aL2438529370L
aL355462360L
aL1731405415L
aL2394180231L
aL3675008525L
aL1203062813L
a(lp17
tp18
atp19
sL960L
(S'_shs512_process'
p20
(lp21
(L679852699L
L1354249480L
(lp22
(lp23
S'__aullshr'
p24
aS'__allshl'
p25
atp26
a(L1690785532L
L0L
(lp27
(lp28
tp29
a(L3933305732L
L0L
(lp30
(lp31
tp32
a(L3826236372L
L3438772250L
(lp33
(lp34
S'_shs_transform'
p35
atp36
a(L2222856904L
L0L
(lp37
(lp38
tp39
atp40
sL3040L
(S'__allshl'
p41
(lp42
(L425776429L
L0L
(lp43
(lp44
tp45
atp46
sL1120L
(S'_shs_transform'
p47
(lp48
(L737885017L
L0L
(lp49
(lp50
tp51
a(L644574996L
L3095270240L
(lp52
(lp53
S'__aullshr'
p54
aS'__aullshr'
p55
aS'__aullshr'
p56
aS'__aullshr'
p57
aS'__allshl'
p58
aS'__aullshr'
p59
atp60
a(L1663398442L
L1650168448L
(lp61
(lp62
tp63
a(L3915726383L
L2915867988L
(lp64
(lp65
S'__allshl'
p66
aS'__aullshr'
p67
aS'__aullshr'
p68
aS'__aullshr'
p69
aS'__allshl'
p70
aS'__allshl'
p71
atp72
a(L2664982920L
L0L
(lp73
(lp74
tp75
atp76
sL2432L
(S'_shs384_process'
p77
(lp78
(L679852699L
L1354249480L
(lp79
(lp80
S'__aullshr'
p81
aS'__allshl'
p82
atp83
a(L1690785532L
L0L
(lp84
(lp85
tp86
a(L3933305732L
L0L
(lp87
(lp88
tp89
a(L3826236372L
L3438772250L
(lp90
(lp91
S'_shs_transform'
p92
atp93
a(L2222856904L
L0L
(lp94
(lp95
tp96
atp97
sL2592L
(S'_shs512_hash'
p98
(lp99
(L3001529976L
L3438772250L
(lp100
(lp101
S'_shs512_process'
p102
atp103
a(L3705841476L
L0L
(lp104
(lp105
tp106
a(L902276101L
L3438772250L
(lp107
(lp108
S'_shs512_process'
p109
atp110
a(L215713123L
L0L
(lp111
(lp112
tp113
a(L640682088L
L3438772250L
(lp114
(lp115
S'_shs_transform'
p116
atp117
a(L1262170858L
L3990344599L
(lp118
L2147483655L
a(lp119
tp120
a(L1278234623L
L1505367737L
(lp121
L4294967288L
a(lp122
tp123
a(L266661666L
L3438772250L
(lp124
(lp125
S'__aullshr'
p126
atp127
a(L3491824892L
L3438772250L
(lp128
(lp129
S'_shs512_init'
p130
atp131
atp132
sL3044L
(S'__aullshr'
p133
(lp134
(L425776429L
L0L
(lp135
(lp136
tp137
atp138
sL2816L
(S'_shs384_hash'
p139
(lp140
(L3001529976L
L3438772250L
(lp141
(lp142
S'_shs512_process'
p143
atp144
a(L3705841476L
L0L
(lp145
(lp146
tp147
a(L902276101L
L3438772250L
(lp148
(lp149
S'_shs384_process'
p150
atp151
a(L215713123L
L0L
(lp152
(lp153
tp154
a(L640682088L
L3438772250L
(lp155
(lp156
S'_shs_transform'
p157
atp158
a(L1262170858L
L3990344599L
(lp159
L2147483655L
a(lp160
tp161
a(L1278234623L
L1505367737L
(lp162
L4294967288L
a(lp163
tp164
a(L3151249201L
L3438772250L
(lp165
(lp166
S'__aullshr'
p167
atp168
a(L3491824892L
L3438772250L
(lp169
(lp170
S'_shs384_init'
p171
atp172
atp173
ssS'fuzzydups'
p174
c__builtin__
set
p175
((lp176
tp177
Rp178
sS'stringdups'
p179
g175
((lp180
tp181
Rp182
sS'immediates'
p183
(dp184
L528734635L
L640L
sL3144134277L
L640L
sL914150663L
L800L
sL4089235720L
L640L
sL2600822924L
L640L
sL3675008525L
L800L
sL1750603025L
L800L
sL812702999L
L800L
sL1541459225L
L640L
sL1203062813L
L800L
sL725511199L
L640L
sL3204075428L
L800L
sL1694076839L
L800L
sL1654270250L
L800L
sL4271175723L
L640L
sL2394180231L
L800L
sL4290775857L
L800L
sL4144912697L
L800L
sL2773480762L
L640L
sL2227873595L
L640L
sL355462360L
L800L
sL1731405415L
L800L
sL2917565137L
L640L
sL3238371032L
L800L
sL2438529370L
L800L
sL3418070365L
L800L
sL1779033703L
L640L
sL4215389547L
L640L
sL1595750129L
L640L
sL1013904242L
L640L
sL327033209L
L640L
sL1359893119L
L640L
ssS'formaldups'
p185
g175
((lp186
tp187
Rp188
sS'immediatedups'
p189
g175
((lp190
tp191
Rp192
sS'fuzzy'
p193
(dp194
L243036136L
L1120L
sL1763283346L
L800L
sL4243602239L
L640L
ssS'strings'
p195
(dp196
sS'formal'
p197
(dp198
L647946945L
L800L
sL2128571108L
L640L
sL3711975217L
L2592L
sL324802939L
L2816L
sL1609132829L
L1120L
ssb.