ccopy_reg
_reconstructor
p0
(c__main__
RizzoSignatures
p1
c__builtin__
object
p2
Ntp3
Rp4
(dp5
S'functions'
p6
(dp7
L256L
(S'_shs256_init'
p8
(lp9
(L561831135L
L1160124696L
(lp10
L1779033703L
aL3144134277L
aL1013904242L
aL2773480762L
aL1359893119L
aL2600822924L
aL528734635L
aL1541459225L
a(lp11
tp12
atp13
sL336L
(S'_shs256_process'
p14
(lp15
(L1865898923L
L0L
(lp16
(lp17
tp18
a(L1768930065L
L0L
(lp19
(lp20
tp21
a(L3105499571L
L0L
(lp22
(lp23
tp24
a(L4044936296L
L3438772250L
(lp25
(lp26
S'_shs_transform'
p27
atp28
a(L425776429L
L0L
(lp29
(lp30
tp31
atp32
sL912L
(S'_shs256_hash'
p33
(lp34
(L696748955L
L3438772250L
(lp35
(lp36
S'_shs256_process'
p37
atp38
a(L2281874274L
L3438772250L
(lp39
(lp40
S'_shs256_process'
p41
atp42
a(L3929439175L
L3438772250L
(lp43
(lp44
S'_shs_transform'
p45
atp46
a(L1134638134L
L3990344595L
(lp47
L2147483651L
a(lp48
tp49
a(L4243637730L
L1504367728L
(lp50
L4294967292L
a(lp51
tp52
a(L2105284792L
L0L
(lp53
(lp54
tp55
a(L3531912146L
L3438772250L
(lp56
(lp57
S'_shs256_init'
p58
atp59
atp60
sL416L
(S'_shs_transform'
p61
(lp62
(L2405197256L
L0L
(lp63
(lp64
tp65
a(L1459444571L
L0L
(lp66
(lp67
tp68
a(L4208482594L
L1650168448L
(lp69
(lp70
tp71
a(L3125188541L
L1650168448L
(lp72
(lp73
tp74
a(L3225749602L
L0L
(lp75
(lp76
tp77
atp78
ssS'fuzzydups'
p79
c__builtin__
set
p80
((lp81
tp82
Rp83
sS'stringdups'
p84
g80
((lp85
tp86
Rp87
sS'immediates'
p88
(dp89
L2147483651L
L912L
sL3144134277L
L256L
sL1779033703L
L256L
sL528734635L
L256L
sL2600822924L
L256L
sL1013904242L
L256L
sL1541459225L
L256L
sL2773480762L
L256L
sL4294967292L
L912L
sL1359893119L
L256L
ssS'formaldups'
p90
g80
((lp91
tp92
Rp93
sS'immediatedups'
p94
g80
((lp95
tp96
Rp97
sS'fuzzy'
p98
(dp99
L1642138467L
L912L
sL458612700L
L256L
sL2406024773L
L336L
sL2772665895L
L416L
ssS'strings'
p100
(dp101
sS'formal'
p102
(dp103
L2803882432L
L336L
sL3923932757L
L416L
sL2379068910L
L256L
sL226881255L
L912L
ssb.