ccopy_reg
_reconstructor
p0
(c__main__
RizzoSignatures
p1
c__builtin__
object
p2
Ntp3
Rp4
(dp5
S'functions'
p6
(dp7
L0L
(S'_smul'
p8
(lp9
(L2061544192L
L0L
(lp10
(lp11
tp12
a(L2837901474L
L3438772250L
(lp13
(lp14
S'_muldvd'
p15
atp16
a(L1738233507L
L3438772250L
(lp17
(lp18
S'_muldiv'
p19
atp20
atp21
sL432L
(S'_spmd'
p22
(lp23
(L3570528483L
L0L
(lp24
(lp25
tp26
a(L1912738883L
L0L
(lp27
(lp28
tp29
a(L2369498187L
L0L
(lp30
(lp31
tp32
a(L3435488285L
L0L
(lp33
(lp34
tp35
a(L4044234884L
L0L
(lp36
(lp37
tp38
a(L2364059042L
L0L
(lp39
(lp40
tp41
a(L2902294339L
L3438772250L
(lp42
(lp43
S'_muldiv'
p44
atp45
a(L3340552800L
L0L
(lp46
(lp47
tp48
a(L944545723L
L3438772250L
(lp49
(lp50
S'_muldiv'
p51
atp52
a(L4058466001L
L0L
(lp53
(lp54
tp55
atp56
sL1220L
(S'_muldvd'
p57
(lp58
(L425776429L
L0L
(lp59
(lp60
tp61
atp62
sL1224L
(S'_muldvm'
p63
(lp64
(L425776429L
L0L
(lp65
(lp66
tp67
atp68
sL1228L
(S'_mr_shiftbits'
p69
(lp70
(L425776429L
L0L
(lp71
(lp72
tp73
atp74
sL1216L
(S'_muldiv'
p75
(lp76
(L425776429L
L0L
(lp77
(lp78
tp79
atp80
sL240L
(S'_jac'
p81
(lp82
(L3351011501L
L0L
(lp83
(lp84
tp85
a(L3731963536L
L0L
(lp86
(lp87
tp88
a(L2508974441L
L0L
(lp89
(lp90
tp91
a(L3221251116L
L0L
(lp92
(lp93
tp94
a(L4119494081L
L0L
(lp95
(lp96
tp97
a(L3705841476L
L0L
(lp98
(lp99
tp100
a(L2086241916L
L0L
(lp101
(lp102
tp103
a(L776497550L
L0L
(lp104
(lp105
tp106
a(L618239224L
L3991344600L
(lp107
L2147483649L
a(lp108
tp109
a(L4152316397L
L1504367734L
(lp110
L4294967294L
a(lp111
tp112
a(L2772121965L
L0L
(lp113
(lp114
tp115
a(L4030252357L
L0L
(lp116
(lp117
tp118
a(L233835674L
L3991344600L
(lp119
L2147483649L
a(lp120
tp121
a(L4188426222L
L1504367734L
(lp122
L4294967294L
a(lp123
tp124
a(L2687485094L
L0L
(lp125
(lp126
tp127
a(L904741897L
L0L
(lp128
(lp129
tp130
a(L920739072L
L0L
(lp131
(lp132
tp133
a(L1811915062L
L1504367735L
(lp134
L4294967295L
a(lp135
tp136
atp137
sL80L
(S'_invers'
p138
(lp139
(L653320956L
L0L
(lp140
(lp141
tp142
a(L678981449L
L0L
(lp143
(lp144
tp145
a(L3353829245L
L0L
(lp146
(lp147
tp148
a(L3476654036L
L0L
(lp149
(lp150
tp151
a(L2891113704L
L0L
(lp152
(lp153
tp154
a(L4088845463L
L3438772250L
(lp155
(lp156
S'_muldvm'
p157
atp158
a(L2648650776L
L0L
(lp159
(lp160
tp161
a(L581957731L
L0L
(lp162
(lp163
tp164
a(L2500995413L
L0L
(lp165
(lp166
tp167
a(L1035856333L
L0L
(lp168
(lp169
tp170
atp171
sL560L
(S'_sqrmp'
p172
(lp173
(L2898031163L
L0L
(lp174
(lp175
tp176
a(L3473768419L
L0L
(lp177
(lp178
tp179
a(L355870781L
L0L
(lp180
(lp181
tp182
a(L2582276930L
L3438772250L
(lp183
(lp184
S'_spmd'
p185
atp186
a(L3878400692L
L0L
(lp187
(lp188
tp189
a(L2332341077L
L3438772250L
(lp190
(lp191
S'_spmd'
p192
atp193
a(L3767405721L
L0L
(lp194
(lp195
tp196
a(L1096799040L
L3438772250L
(lp197
(lp198
S'_spmd'
p199
atp200
a(L3532523059L
L3438772250L
(lp201
(lp202
S'_spmd'
p203
atp204
a(L3706428037L
L0L
(lp205
(lp206
tp207
a(L1442833088L
L449713974L
(lp208
(lp209
S'_muldiv'
p210
aS'_spmd'
p211
aS'_muldiv'
p212
atp213
a(L2895063594L
L0L
(lp214
(lp215
tp216
a(L3706442493L
L0L
(lp217
(lp218
tp219
a(L391718293L
L0L
(lp220
(lp221
tp222
a(L4014185783L
L0L
(lp223
(lp224
tp225
a(L2733947019L
L3438772250L
(lp226
(lp227
S'_spmd'
p228
atp229
a(L2359692561L
L0L
(lp230
(lp231
tp232
a(L1312333612L
L0L
(lp233
(lp234
tp235
a(L2307479712L
L0L
(lp236
(lp237
tp238
a(L3684663156L
L3438772250L
(lp239
(lp240
S'_muldiv'
p241
atp242
a(L615954924L
L0L
(lp243
(lp244
tp245
a(L3309560232L
L0L
(lp246
(lp247
tp248
a(L273619977L
L0L
(lp249
(lp250
tp251
a(L615954924L
L0L
(lp252
(lp253
tp254
a(L85485329L
L0L
(lp255
(lp256
tp257
a(L1392730760L
L1354249480L
(lp258
(lp259
S'_spmd'
p260
aS'_spmd'
p261
atp262
a(L1204111316L
L0L
(lp263
(lp264
tp265
a(L4118069822L
L3438772250L
(lp266
(lp267
S'_muldiv'
p268
atp269
a(L3818744339L
L0L
(lp270
(lp271
tp272
a(L2659490281L
L3104595698L
(lp273
(lp274
S'_mr_shiftbits'
p275
aS'_spmd'
p276
aS'_muldiv'
p277
aS'_muldiv'
p278
aS'_muldiv'
p279
atp280
a(L3922414537L
L0L
(lp281
(lp282
tp283
a(L3599243231L
L0L
(lp284
(lp285
tp286
atp287
ssS'fuzzydups'
p288
c__builtin__
set
p289
((lp290
tp291
Rp292
sS'stringdups'
p293
g289
((lp294
tp295
Rp296
sS'immediates'
p297
(dp298
L4294967295L
L240L
ssS'formaldups'
p299
g289
((lp300
tp301
Rp302
sS'immediatedups'
p303
g289
((lp304
tp305
Rp306
sS'fuzzy'
p307
(dp308
L721377568L
L240L
sL3685283786L
L80L
sL645167404L
L560L
sL3852026773L
L0L
sL937636922L
L432L
ssS'strings'
p309
(dp310
sS'formal'
p311
(dp312
L3760248387L
L432L
sL2759032164L
L240L
sL892806738L
L0L
sL1228005236L
L80L
sL1178920277L
L560L
ssb.