ccopy_reg
_reconstructor
p0
(c__main__
RizzoSignatures
p1
c__builtin__
object
p2
Ntp3
Rp4
(dp5
S'functions'
p6
(dp7
L0L
(S'_xgcd'
p8
(lp9
(L2858012554L
L1650168448L
(lp10
(lp11
tp12
a(L3231168943L
L0L
(lp13
(lp14
tp15
a(L1537868741L
L1650168448L
(lp16
(lp17
tp18
a(L3241988914L
L1650168448L
(lp19
(lp20
tp21
a(L520110351L
L1912178190L
(lp22
(lp23
S'_mr_track'
p24
atp25
a(L2881610455L
L3850129268L
(lp26
(lp27
S'_copy'
p28
aS'_copy'
p29
aS'_exsign'
p30
aS'_insign'
p31
aS'_insign'
p32
aS'_convert'
p33
aS'_zero'
p34
aS'_size'
p35
atp36
a(L3249209674L
L0L
(lp37
(lp38
tp39
a(L3476325961L
L0L
(lp40
(lp41
tp42
a(L2527308406L
L1650168448L
(lp43
(lp44
tp45
a(L2215989692L
L1576971286L
(lp46
(lp47
S'_divide'
p48
aS'_multiply'
p49
aS'_add'
p50
atp51
a(L1468270245L
L1073147704L
(lp52
(lp53
S'_mr_pmul'
p54
aS'_mr_pmul'
p55
aS'_mr_pmul'
p56
aS'_mr_pmul'
p57
atp58
a(L3442310240L
L1912178190L
(lp59
(lp60
S'_mr_psub'
p61
atp62
a(L326668020L
L1912178190L
(lp63
(lp64
S'_mr_psub'
p65
atp66
a(L1820708325L
L91788322L
(lp67
(lp68
S'_mr_psub'
p69
aS'_mr_pmul'
p70
aS'_mr_pmul'
p71
aS'_mr_pmul'
p72
aS'_mr_pmul'
p73
atp74
a(L3242220618L
L434665910L
(lp75
(lp76
S'_copy'
p77
atp78
a(L2679188040L
L434665910L
(lp79
(lp80
S'_mr_padd'
p81
atp82
a(L3957693795L
L434665910L
(lp83
(lp84
S'_mr_padd'
p85
atp86
a(L3985540784L
L1650168448L
(lp87
(lp88
tp89
a(L3245073596L
L3438772250L
(lp90
(lp91
S'_size'
p92
atp93
a(L1263033429L
L1650168448L
(lp94
(lp95
tp96
a(L3918260566L
L0L
(lp97
(lp98
tp99
a(L811109410L
L0L
(lp100
(lp101
tp102
a(L1579258834L
L0L
(lp103
(lp104
tp105
a(L615954924L
L0L
(lp106
(lp107
tp108
a(L191796358L
L1811290924L
(lp109
(lp110
S'_muldvm'
p111
aS'_muldvm'
p112
aS'_muldvm'
p113
aS'_muldvm'
p114
atp115
a(L3714623068L
L1650168448L
(lp116
(lp117
tp118
a(L4214270148L
L0L
(lp119
(lp120
tp121
a(L446175026L
L0L
(lp122
(lp123
tp124
a(L1579258834L
L0L
(lp125
(lp126
tp127
a(L1296940179L
L1565383412L
(lp128
(lp129
S'_muldiv'
p130
aS'_muldiv'
p131
aS'__allmul'
p132
aS'_muldiv'
p133
aS'_muldiv'
p134
aS'__allmul'
p135
atp136
a(L1447622856L
L2941833480L
(lp137
(lp138
S'__allmul'
p139
aS'__allmul'
p140
atp141
a(L774831213L
L0L
(lp142
(lp143
tp144
a(L2895851498L
L0L
(lp145
(lp146
tp147
a(L545745955L
L0L
(lp148
(lp149
tp150
a(L704403454L
L3438772250L
(lp151
(lp152
S'_qdiv'
p153
atp154
a(L3249209674L
L0L
(lp155
(lp156
tp157
a(L3742680750L
L0L
(lp158
(lp159
tp160
a(L1885797943L
L0L
(lp161
(lp162
tp163
a(L1934986945L
L0L
(lp164
(lp165
tp166
a(L1703479805L
L3438772250L
(lp167
(lp168
S'_qdiv'
p169
atp170
a(L2550394541L
L3438772250L
(lp171
(lp172
S'_qdiv'
p173
atp174
a(L3249209674L
L0L
(lp175
(lp176
tp177
a(L2646578580L
L0L
(lp178
(lp179
tp180
a(L1770768221L
L0L
(lp181
(lp182
tp183
a(L2298330559L
L3438772250L
(lp184
(lp185
S'_qdiv'
p186
atp187
a(L2882070890L
L3438772250L
(lp188
(lp189
S'_qdiv'
p190
atp191
a(L3274821466L
L0L
(lp192
(lp193
tp194
a(L945970946L
L3991344601L
(lp195
L2147483648L
a(lp196
tp197
a(L1927777755L
L0L
(lp198
(lp199
tp200
a(L1341478099L
L3991344601L
(lp201
L2147483648L
a(lp202
tp203
a(L4123191325L
L3438772250L
(lp204
(lp205
S'__allmul'
p206
atp207
a(L3335001141L
L0L
(lp208
(lp209
tp210
a(L2896263813L
L3991344600L
(lp211
L2147483649L
a(lp212
tp213
a(L4152316397L
L1504367734L
(lp214
L4294967294L
a(lp215
tp216
a(L3416092860L
L434665910L
(lp217
(lp218
S'_size'
p219
atp220
a(L1795816891L
L1650168448L
(lp221
(lp222
tp223
a(L1067204L
L1504367735L
(lp224
L4294967295L
a(lp225
tp226
a(L4077756158L
L0L
(lp227
(lp228
tp229
a(L2963106476L
L3991344600L
(lp230
L2147483649L
a(lp231
tp232
a(L3125598927L
L1504367734L
(lp233
L4294967294L
a(lp234
tp235
a(L1303820903L
L0L
(lp236
(lp237
tp238
a(L3563963782L
L1912178190L
(lp239
(lp240
S'_subtract'
p241
atp242
a(L1324367596L
L0L
(lp243
(lp244
tp245
a(L944834796L
L1997743146L
(lp246
(lp247
S'_negify'
p248
aS'_mad'
p249
aS'_copy'
p250
atp251
a(L3500469132L
L3438772250L
(lp252
(lp253
S'_copy'
p254
atp255
a(L3780768680L
L0L
(lp256
(lp257
tp258
a(L3885169387L
L434665910L
(lp259
(lp260
S'_copy'
p261
atp262
a(L3417087105L
L2640012870L
(lp263
(lp264
S'_size'
p265
atp266
atp267
sL3520L
(S'_zero'
p268
(lp269
(L425776429L
L0L
(lp270
(lp271
tp272
atp273
sL3472L
(S'_mad'
p274
(lp275
(L425776429L
L0L
(lp276
(lp277
tp278
atp279
sL3476L
(S'_negify'
p280
(lp281
(L425776429L
L0L
(lp282
(lp283
tp284
atp285
sL3480L
(S'_subtract'
p286
(lp287
(L425776429L
L0L
(lp288
(lp289
tp290
atp291
sL2640L
(S'_double_inverse'
p292
(lp293
(L2211757353L
L2614424152L
(lp294
(lp295
tp296
a(L1239609328L
L1650168448L
(lp297
(lp298
tp299
a(L520110351L
L1912178190L
(lp300
(lp301
S'_mr_track'
p302
atp303
a(L45884922L
L2941833480L
(lp304
(lp305
S'_mad'
p306
aS'_size'
p307
atp308
a(L4271104942L
L1912178190L
(lp309
(lp310
S'_mr_berror'
p311
atp312
a(L2613320304L
L2347529182L
(lp313
(lp314
S'_invmodp'
p315
aS'_mad'
p316
aS'_mad'
p317
atp318
atp319
sL3484L
(S'_muldiv'
p320
(lp321
(L425776429L
L0L
(lp322
(lp323
tp324
atp325
sL3488L
(S'_muldvm'
p326
(lp327
(L425776429L
L0L
(lp328
(lp329
tp330
atp331
sL3492L
(S'_mr_padd'
p332
(lp333
(L425776429L
L0L
(lp334
(lp335
tp336
atp337
sL3496L
(S'_mr_psub'
p338
(lp339
(L425776429L
L0L
(lp340
(lp341
tp342
atp343
sL3500L
(S'_mr_pmul'
p344
(lp345
(L425776429L
L0L
(lp346
(lp347
tp348
atp349
sL3504L
(S'_add'
p350
(lp351
(L425776429L
L0L
(lp352
(lp353
tp354
atp355
sL3508L
(S'_multiply'
p356
(lp357
(L425776429L
L0L
(lp358
(lp359
tp360
atp361
sL3512L
(S'_divide'
p362
(lp363
(L425776429L
L0L
(lp364
(lp365
tp366
atp367
sL3516L
(S'_size'
p368
(lp369
(L425776429L
L0L
(lp370
(lp371
tp372
atp373
sL2880L
(S'_multi_inverse'
p374
(lp375
(L1623117286L
L0L
(lp376
(lp377
tp378
a(L3255209645L
L0L
(lp379
(lp380
tp381
a(L3221251116L
L0L
(lp382
(lp383
tp384
a(L1182507558L
L2614424152L
(lp385
(lp386
tp387
a(L3434600577L
L1650168448L
(lp388
(lp389
tp390
a(L1868153140L
L3438772250L
(lp391
(lp392
S'_mr_track'
p393
atp394
a(L1062601017L
L0L
(lp395
(lp396
tp397
a(L451245041L
L1912178190L
(lp398
(lp399
S'_mr_berror'
p400
atp401
a(L3589581053L
L0L
(lp402
(lp403
tp404
a(L722561797L
L3438772250L
(lp405
(lp406
S'_invmodp'
p407
atp408
a(L2415156186L
L1354249480L
(lp409
(lp410
S'_convert'
p411
aS'_copy'
p412
atp413
a(L1829134338L
L0L
(lp414
(lp415
tp416
a(L3340170688L
L0L
(lp417
(lp418
tp419
a(L2337875229L
L3438772250L
(lp420
(lp421
S'_mad'
p422
atp423
a(L3119723301L
L0L
(lp424
(lp425
tp426
a(L3172785085L
L1015000508L
(lp427
(lp428
S'_mad'
p429
aS'_size'
p430
atp431
a(L2346672944L
L1912178190L
(lp432
(lp433
S'_mr_berror'
p434
atp435
a(L2582411903L
L3606524018L
(lp436
(lp437
S'_invmodp'
p438
aS'_copy'
p439
aS'_mad'
p440
atp441
a(L2809582863L
L0L
(lp442
(lp443
tp444
a(L3474350963L
L3606524018L
(lp445
(lp446
S'_mad'
p447
aS'_mad'
p448
aS'_mad'
p449
atp450
a(L3480348337L
L434665910L
(lp451
(lp452
S'_mad'
p453
atp454
a(L3110991158L
L1650168448L
(lp455
(lp456
tp457
a(L920739072L
L0L
(lp458
(lp459
tp460
atp461
sL3524L
(S'_convert'
p462
(lp463
(L425776429L
L0L
(lp464
(lp465
tp466
atp467
sL3528L
(S'_insign'
p468
(lp469
(L425776429L
L0L
(lp470
(lp471
tp472
atp473
sL3532L
(S'_exsign'
p474
(lp475
(L425776429L
L0L
(lp476
(lp477
tp478
atp479
sL3536L
(S'_copy'
p480
(lp481
(L425776429L
L0L
(lp482
(lp483
tp484
atp485
sL3540L
(S'_mr_track'
p486
(lp487
(L425776429L
L0L
(lp488
(lp489
tp490
atp491
sL3548L
(S'__allmul'
p492
(lp493
(L425776429L
L0L
(lp494
(lp495
tp496
atp497
sL3552L
(S'__aulldiv'
p498
(lp499
(L425776429L
L0L
(lp500
(lp501
tp502
atp503
sL2320L
(S'_qdiv'
p504
(lp505
(L1348000164L
L0L
(lp506
(lp507
tp508
a(L653184222L
L0L
(lp509
(lp510
tp511
a(L2482741709L
L0L
(lp512
(lp513
tp514
a(L3991957471L
L0L
(lp515
(lp516
tp517
a(L2950349298L
L0L
(lp518
(lp519
tp520
a(L653184222L
L0L
(lp521
(lp522
tp523
a(L2482741709L
L0L
(lp524
(lp525
tp526
a(L2683964340L
L0L
(lp527
(lp528
tp529
a(L2950349298L
L0L
(lp530
(lp531
tp532
a(L653184222L
L0L
(lp533
(lp534
tp535
a(L2482741709L
L0L
(lp536
(lp537
tp538
a(L2034847761L
L0L
(lp539
(lp540
tp541
a(L2950349298L
L0L
(lp542
(lp543
tp544
a(L653184222L
L0L
(lp545
(lp546
tp547
a(L2482741709L
L0L
(lp548
(lp549
tp550
a(L4202876670L
L0L
(lp551
(lp552
tp553
a(L2950349298L
L0L
(lp554
(lp555
tp556
a(L653184222L
L0L
(lp557
(lp558
tp559
a(L2482741709L
L0L
(lp560
(lp561
tp562
a(L772187235L
L0L
(lp563
(lp564
tp565
a(L2950349298L
L0L
(lp566
(lp567
tp568
a(L653184222L
L0L
(lp569
(lp570
tp571
a(L2482741709L
L0L
(lp572
(lp573
tp574
a(L762990728L
L0L
(lp575
(lp576
tp577
a(L2950349298L
L0L
(lp578
(lp579
tp580
a(L653184222L
L0L
(lp581
(lp582
tp583
a(L2482741709L
L0L
(lp584
(lp585
tp586
a(L2821772981L
L0L
(lp587
(lp588
tp589
a(L2950349298L
L0L
(lp590
(lp591
tp592
a(L653184222L
L0L
(lp593
(lp594
tp595
a(L2482741709L
L0L
(lp596
(lp597
tp598
a(L44908626L
L0L
(lp599
(lp600
tp601
a(L2913526458L
L3438772250L
(lp602
(lp603
S'__aulldiv'
p604
atp605
a(L4155408367L
L3991344601L
(lp606
L2147483648L
a(lp607
tp608
a(L788058486L
L0L
(lp609
(lp610
tp611
a(L1356022597L
L0L
(lp612
(lp613
tp614
atp615
sL3556L
(S'_mr_berror'
p616
(lp617
(L425776429L
L0L
(lp618
(lp619
tp620
atp621
sL2544L
(S'_invmodp'
p622
(lp623
(L2133487739L
L2614424152L
(lp624
(lp625
tp626
a(L1591001199L
L1650168448L
(lp627
(lp628
tp629
a(L1868153140L
L3438772250L
(lp630
(lp631
S'_mr_track'
p632
atp633
a(L1927228488L
L1912178190L
(lp634
(lp635
S'_xgcd'
p636
atp637
atp638
ssS'fuzzydups'
p639
c__builtin__
set
p640
((lp641
tp642
Rp643
sS'stringdups'
p644
g640
((lp645
tp646
Rp647
sS'immediates'
p648
(dp649
L4294967295L
L0L
ssS'formaldups'
p650
g640
((lp651
tp652
Rp653
sS'immediatedups'
p654
g640
((lp655
tp656
Rp657
sS'fuzzy'
p658
(dp659
L4153553985L
L0L
sL975677923L
L2320L
sL2072840853L
L2880L
sL1764751261L
L2640L
sL1053982270L
L2544L
ssS'strings'
p660
(dp661
sS'formal'
p662
(dp663
L410281231L
L2544L
sL1574224596L
L2640L
sL1121198485L
L2320L
sL3695608084L
L0L
sL2157004538L
L2880L
ssb.