ccopy_reg
_reconstructor
p0
(c__main__
RizzoSignatures
p1
c__builtin__
object
p2
Ntp3
Rp4
(dp5
S'functions'
p6
(dp7
L0L
(S'_zzn2_iszero'
p8
(lp9
(L3841446807L
L3438772250L
(lp10
(lp11
S'_size'
p12
atp13
a(L2842353153L
L3438772250L
(lp14
(lp15
S'_size'
p16
atp17
a(L3991957471L
L0L
(lp18
(lp19
tp20
a(L133851771L
L0L
(lp21
(lp22
tp23
atp24
sL128L
(S'_zzn2_compare'
p25
(lp26
(L1801246988L
L3438772250L
(lp27
(lp28
S'_mr_compare'
p29
atp30
a(L2169635696L
L3438772250L
(lp31
(lp32
S'_mr_compare'
p33
atp34
a(L5811300L
L0L
(lp35
(lp36
tp37
a(L2110596432L
L0L
(lp38
(lp39
tp40
atp41
sL3184L
(S'_zzn2_div2'
p42
(lp43
(L3985540784L
L1650168448L
(lp44
(lp45
tp46
a(L3582075213L
L1650168448L
(lp47
(lp48
tp49
a(L1934697609L
L1650168448L
(lp50
(lp51
tp52
a(L1868153140L
L3438772250L
(lp53
(lp54
S'_mr_track'
p55
atp56
a(L1256940318L
L3504974572L
(lp57
(lp58
S'_nres_div2'
p59
aS'_nres_div2'
p60
atp61
a(L425776429L
L0L
(lp62
(lp63
tp64
atp65
sL192L
(S'_zzn2_from_int'
p66
(lp67
(L3985540784L
L1650168448L
(lp68
(lp69
tp70
a(L1767301447L
L1650168448L
(lp71
(lp72
tp73
a(L1266716339L
L1650168448L
(lp74
(lp75
tp76
a(L520110351L
L1912178190L
(lp77
(lp78
S'_mr_track'
p79
atp80
a(L1177470807L
L0L
(lp81
(lp82
tp83
a(L3774771317L
L3438772250L
(lp84
(lp85
S'_copy'
p86
atp87
a(L3018964521L
L2941833480L
(lp88
(lp89
S'_convert'
p90
aS'_nres'
p91
atp92
a(L2150453671L
L1912178190L
(lp93
(lp94
S'_zero'
p95
atp96
a(L425776429L
L0L
(lp97
(lp98
tp99
atp100
sL912L
(S'_zzn2_zero'
p101
(lp102
(L4050841993L
L1354249480L
(lp103
(lp104
S'_zero'
p105
aS'_zero'
p106
atp107
atp108
sL3408L
(S'_zzn2_div5'
p109
(lp110
(L3985540784L
L1650168448L
(lp111
(lp112
tp113
a(L3582075213L
L1650168448L
(lp114
(lp115
tp116
a(L3954697235L
L1650168448L
(lp117
(lp118
tp119
a(L1868153140L
L3438772250L
(lp120
(lp121
S'_mr_track'
p122
atp123
a(L1256940318L
L3504974572L
(lp124
(lp125
S'_nres_div5'
p126
aS'_nres_div5'
p127
atp128
a(L425776429L
L0L
(lp129
(lp130
tp131
atp132
sL3696L
(S'_zzn2_txx'
p133
(lp134
(L2642942989L
L1650168448L
(lp135
(lp136
tp137
a(L1767301447L
L1650168448L
(lp138
(lp139
tp140
a(L3415736919L
L1650168448L
(lp141
(lp142
tp143
a(L520110351L
L1912178190L
(lp144
(lp145
S'_mr_track'
p146
atp147
a(L381496599L
L0L
(lp148
(lp149
tp150
a(L4180454393L
L0L
(lp151
(lp152
tp153
a(L3445474524L
L0L
(lp154
(lp155
tp156
a(L632326610L
L4220353904L
(lp157
(lp158
S'_zzn2_copy'
p159
aS'_zzn2_timesi'
p160
aS'_zzn2_add'
p161
aS'_zzn2_add'
p162
atp163
a(L4135017858L
L1912178190L
(lp164
(lp165
S'_zzn2_timesi'
p166
atp167
a(L2252806324L
L1060385270L
(lp168
(lp169
S'_zzn2_copy'
p170
aS'_zzn2_timesi'
p171
aS'_zzn2_add'
p172
atp173
a(L3515635132L
L0L
(lp174
(lp175
tp176
a(L1791304087L
L0L
(lp177
(lp178
tp179
atp180
sL4380L
(S'_zero'
p181
(lp182
(L425776429L
L0L
(lp183
(lp184
tp185
atp186
sL2848L
(S'_zzn2_inv'
p187
(lp188
(L3985540784L
L1650168448L
(lp189
(lp190
tp191
a(L3582075213L
L1650168448L
(lp192
(lp193
tp194
a(L1687802688L
L1650168448L
(lp195
(lp196
tp197
a(L520110351L
L1912178190L
(lp198
(lp199
S'_mr_track'
p200
atp201
a(L3884873246L
L3210440264L
(lp202
L4294967294L
a(lp203
S'_nres_modmult'
p204
aS'_nres_modmult'
p205
aS'_nres_modadd'
p206
atp207
a(L4032890244L
L1912178190L
(lp208
(lp209
S'_nres_modadd'
p210
atp211
a(L1267553516L
L1079524692L
(lp212
(lp213
S'_redc'
p214
aS'_invmodp'
p215
aS'_nres'
p216
aS'_nres_modmult'
p217
aS'_nres_negate'
p218
aS'_nres_modmult'
p219
atp220
a(L425776429L
L0L
(lp221
(lp222
tp223
atp224
sL1184L
(S'_zzn2_add'
p225
(lp226
(L3985540784L
L1650168448L
(lp227
(lp228
tp229
a(L3972579996L
L1650168448L
(lp230
(lp231
tp232
a(L2598044848L
L1650168448L
(lp233
(lp234
tp235
a(L1868153140L
L3438772250L
(lp236
(lp237
S'_mr_track'
p238
atp239
a(L3751035341L
L3504974572L
(lp240
(lp241
S'_nres_modadd'
p242
aS'_nres_modadd'
p243
atp244
a(L425776429L
L0L
(lp245
(lp246
tp247
atp248
sL1072L
(S'_zzn2_conj'
p249
(lp250
(L4047280776L
L2614424152L
(lp251
(lp252
tp253
a(L3420118609L
L1650168448L
(lp254
(lp255
tp256
a(L520110351L
L1912178190L
(lp257
(lp258
S'_mr_track'
p259
atp260
a(L2489587573L
L0L
(lp261
(lp262
tp263
a(L3180926854L
L3504974572L
(lp264
(lp265
S'_zzn2_copy'
p266
aS'_nres_negate'
p267
atp268
a(L1356022597L
L0L
(lp269
(lp270
tp271
atp272
sL4388L
(S'_convert'
p273
(lp274
(L425776429L
L0L
(lp275
(lp276
tp277
atp278
sL48L
(S'_zzn2_isunity'
p279
(lp280
(L108603268L
L1650168448L
(lp281
(lp282
tp283
a(L2284489442L
L3438772250L
(lp284
(lp285
S'_size'
p286
atp287
a(L1294406863L
L434665910L
(lp288
(lp289
S'_mr_compare'
p290
atp291
a(L133851771L
L0L
(lp292
(lp293
tp294
atp295
sL4392L
(S'_copy'
p296
(lp297
(L425776429L
L0L
(lp298
(lp299
tp300
atp301
sL4396L
(S'_mr_track'
p302
(lp303
(L425776429L
L0L
(lp304
(lp305
tp306
atp307
sL3296L
(S'_zzn2_div3'
p308
(lp309
(L3985540784L
L1650168448L
(lp310
(lp311
tp312
a(L3582075213L
L1650168448L
(lp313
(lp314
tp315
a(L99697655L
L1650168448L
(lp316
(lp317
tp318
a(L1868153140L
L3438772250L
(lp319
(lp320
S'_mr_track'
p321
atp322
a(L1256940318L
L3504974572L
(lp323
(lp324
S'_nres_div3'
p325
aS'_nres_div3'
p326
atp327
a(L425776429L
L0L
(lp328
(lp329
tp330
atp331
sL4400L
(S'_nres_negate'
p332
(lp333
(L425776429L
L0L
(lp334
(lp335
tp336
atp337
sL944L
(S'_zzn2_negate'
p338
(lp339
(L3985540784L
L1650168448L
(lp340
(lp341
tp342
a(L3582075213L
L1650168448L
(lp343
(lp344
tp345
a(L2503553058L
L1650168448L
(lp346
(lp347
tp348
a(L1868153140L
L3438772250L
(lp349
(lp350
S'_mr_track'
p351
atp352
a(L1922742558L
L1060385270L
(lp353
(lp354
S'_zzn2_copy'
p355
aS'_nres_negate'
p356
aS'_nres_negate'
p357
atp358
a(L425776429L
L0L
(lp359
(lp360
tp361
atp362
sL368L
(S'_zzn2_from_ints'
p363
(lp364
(L3985540784L
L1650168448L
(lp365
(lp366
tp367
a(L1767301447L
L1650168448L
(lp368
(lp369
tp370
a(L3561574249L
L1650168448L
(lp371
(lp372
tp373
a(L520110351L
L1912178190L
(lp374
(lp375
S'_mr_track'
p376
atp377
a(L2770484409L
L1073147704L
(lp378
(lp379
S'_convert'
p380
aS'_nres'
p381
aS'_convert'
p382
aS'_nres'
p383
atp384
a(L425776429L
L0L
(lp385
(lp386
tp387
atp388
sL544L
(S'_zzn2_from_zzns'
p389
(lp390
(L3802866176L
L1354249480L
(lp391
(lp392
S'_copy'
p393
aS'_copy'
p394
atp395
atp396
sL4432L
(S'_nres_div2'
p397
(lp398
(L425776429L
L0L
(lp399
(lp400
tp401
atp402
sL4408L
(S'_nres_modsub'
p403
(lp404
(L425776429L
L0L
(lp405
(lp406
tp407
atp408
sL4404L
(S'_nres_modadd'
p409
(lp410
(L425776429L
L0L
(lp411
(lp412
tp413
atp414
sL4412L
(S'_nres_modmult'
p415
(lp416
(L425776429L
L0L
(lp417
(lp418
tp419
atp420
sL752L
(S'_zzn2_from_big'
p421
(lp422
(L3985540784L
L1650168448L
(lp423
(lp424
tp425
a(L3582075213L
L1650168448L
(lp426
(lp427
tp428
a(L2798742520L
L1650168448L
(lp429
(lp430
tp431
a(L1868153140L
L3438772250L
(lp432
(lp433
S'_mr_track'
p434
atp435
a(L4218610003L
L3504974572L
(lp436
(lp437
S'_nres'
p438
aS'_zero'
p439
atp440
a(L425776429L
L0L
(lp441
(lp442
tp443
atp444
sL2112L
(S'_zzn2_sqr'
p445
(lp446
(L3985540784L
L1650168448L
(lp447
(lp448
tp449
a(L1140748212L
L1650168448L
(lp450
(lp451
tp452
a(L1018748442L
L1650168448L
(lp453
(lp454
tp455
a(L520110351L
L1912178190L
(lp456
(lp457
S'_mr_track'
p458
atp459
a(L2482189636L
L1358238554L
(lp460
L4294967294L
a(lp461
S'_nres_modadd'
p462
aS'_nres_modsub'
p463
atp464
a(L676643828L
L3438772250L
(lp465
(lp466
S'_nres_modsub'
p467
atp468
a(L1573405155L
L1358238554L
(lp469
L4294967294L
a(lp470
S'_nres_modmult'
p471
aS'_nres_modmult'
p472
atp473
a(L2467453927L
L3438772250L
(lp474
(lp475
S'_nres_modadd'
p476
atp477
a(L66222230L
L1912178190L
(lp478
(lp479
S'_nres_modadd'
p480
atp481
a(L425776429L
L0L
(lp482
(lp483
tp484
atp485
sL1440L
(S'_zzn2_sub'
p486
(lp487
(L3985540784L
L1650168448L
(lp488
(lp489
tp490
a(L3972579996L
L1650168448L
(lp491
(lp492
tp493
a(L184371237L
L1650168448L
(lp494
(lp495
tp496
a(L1868153140L
L3438772250L
(lp497
(lp498
S'_mr_track'
p499
atp500
a(L3751035341L
L3504974572L
(lp501
(lp502
S'_nres_modsub'
p503
aS'_nres_modsub'
p504
atp505
a(L425776429L
L0L
(lp506
(lp507
tp508
atp509
sL4000L
(S'_zzn2_txd'
p510
(lp511
(L2642942989L
L1650168448L
(lp512
(lp513
tp514
a(L1767301447L
L1650168448L
(lp515
(lp516
tp517
a(L1563135828L
L1650168448L
(lp518
(lp519
tp520
a(L520110351L
L1912178190L
(lp521
(lp522
S'_mr_track'
p523
atp524
a(L3925863107L
L0L
(lp525
(lp526
tp527
a(L2084576250L
L0L
(lp528
(lp529
tp530
a(L2927745797L
L0L
(lp531
(lp532
tp533
a(L2934716951L
L2915867988L
(lp534
(lp535
S'_nres_modadd'
p536
aS'_nres_modadd'
p537
aS'_nres_modadd'
p538
aS'_nres_modsub'
p539
aS'_zzn2_div5'
p540
aS'_zzn2_copy'
p541
atp542
a(L3647964198L
L4220353904L
(lp543
(lp544
S'_copy'
p545
aS'_nres_div2'
p546
aS'_nres_negate'
p547
aS'_zzn2_copy'
p548
atp549
a(L1990403097L
L4220353904L
(lp550
(lp551
S'_nres_modadd'
p552
aS'_nres_modsub'
p553
aS'_zzn2_div2'
p554
aS'_zzn2_copy'
p555
atp556
a(L3515635132L
L0L
(lp557
(lp558
tp559
a(L1791304087L
L0L
(lp560
(lp561
tp562
atp563
sL4420L
(S'_nres_lazy'
p564
(lp565
(L425776429L
L0L
(lp566
(lp567
tp568
atp569
sL4424L
(S'_invmodp'
p570
(lp571
(L425776429L
L0L
(lp572
(lp573
tp574
atp575
sL4428L
(S'_redc'
p576
(lp577
(L425776429L
L0L
(lp578
(lp579
tp580
atp581
sL1328L
(S'_zzn2_sadd'
p582
(lp583
(L3985540784L
L1650168448L
(lp584
(lp585
tp586
a(L802278310L
L1650168448L
(lp587
(lp588
tp589
a(L2164573682L
L1650168448L
(lp590
(lp591
tp592
a(L1868153140L
L3438772250L
(lp593
(lp594
S'_mr_track'
p595
atp596
a(L1320486797L
L1912178190L
(lp597
(lp598
S'_nres_modadd'
p599
atp600
a(L425776429L
L0L
(lp601
(lp602
tp603
atp604
sL592L
(S'_zzn2_from_bigs'
p605
(lp606
(L3985540784L
L1650168448L
(lp607
(lp608
tp609
a(L3582075213L
L1650168448L
(lp610
(lp611
tp612
a(L1521844971L
L1650168448L
(lp613
(lp614
tp615
a(L1868153140L
L3438772250L
(lp616
(lp617
S'_mr_track'
p618
atp619
a(L3608871675L
L3504974572L
(lp620
(lp621
S'_nres'
p622
aS'_nres'
p623
atp624
a(L425776429L
L0L
(lp625
(lp626
tp627
atp628
sL4384L
(S'_nres'
p629
(lp630
(L425776429L
L0L
(lp631
(lp632
tp633
atp634
sL4436L
(S'_nres_div3'
p635
(lp636
(L425776429L
L0L
(lp637
(lp638
tp639
atp640
sL4416L
(S'_nres_premult'
p641
(lp642
(L425776429L
L0L
(lp643
(lp644
tp645
atp646
sL1584L
(S'_zzn2_ssub'
p647
(lp648
(L3985540784L
L1650168448L
(lp649
(lp650
tp651
a(L802278310L
L1650168448L
(lp652
(lp653
tp654
a(L3280154794L
L1650168448L
(lp655
(lp656
tp657
a(L1868153140L
L3438772250L
(lp658
(lp659
S'_mr_track'
p660
atp661
a(L1320486797L
L1912178190L
(lp662
(lp663
S'_nres_modsub'
p664
atp665
a(L425776429L
L0L
(lp666
(lp667
tp668
atp669
sL4440L
(S'_nres_div5'
p670
(lp671
(L425776429L
L0L
(lp672
(lp673
tp674
atp675
sL864L
(S'_zzn2_copy'
p676
(lp677
(L339303340L
L0L
(lp678
(lp679
tp680
a(L938445357L
L1354249480L
(lp681
(lp682
S'_copy'
p683
aS'_copy'
p684
atp685
a(L2222856904L
L0L
(lp686
(lp687
tp688
atp689
sL720L
(S'_zzn2_from_zzn'
p690
(lp691
(L480664526L
L1354249480L
(lp692
(lp693
S'_copy'
p694
aS'_zero'
p695
atp696
atp697
sL4368L
(S'_size'
p698
(lp699
(L425776429L
L0L
(lp700
(lp701
tp702
atp703
sL1904L
(S'_zzn2_imul'
p704
(lp705
(L3985540784L
L1650168448L
(lp706
(lp707
tp708
a(L3972579996L
L1650168448L
(lp709
(lp710
tp711
a(L2172567878L
L1650168448L
(lp712
(lp713
tp714
a(L1868153140L
L3438772250L
(lp715
(lp716
S'_mr_track'
p717
atp718
a(L1513879098L
L3438772250L
(lp719
(lp720
S'_size'
p721
atp722
a(L3060495152L
L3438772250L
(lp723
(lp724
S'_nres_premult'
p725
atp726
a(L3008364936L
L3438772250L
(lp727
(lp728
S'_zero'
p729
atp730
a(L3936326982L
L3438772250L
(lp731
(lp732
S'_size'
p733
atp734
a(L796183583L
L1912178190L
(lp735
(lp736
S'_nres_premult'
p737
atp738
a(L2280131277L
L1912178190L
(lp739
(lp740
S'_zero'
p741
atp742
a(L425776429L
L0L
(lp743
(lp744
tp745
atp746
sL2384L
(S'_zzn2_mul'
p747
(lp748
(L3985540784L
L1650168448L
(lp749
(lp750
tp751
a(L278480694L
L1650168448L
(lp752
(lp753
tp754
a(L281249287L
L1650168448L
(lp755
(lp756
tp757
a(L1868153140L
L3438772250L
(lp758
(lp759
S'_mr_track'
p760
atp761
a(L4234106129L
L3438772250L
(lp762
(lp763
S'_zzn2_iszero'
p764
atp765
a(L1502045381L
L3438772250L
(lp766
(lp767
S'_zzn2_iszero'
p768
atp769
a(L2487327989L
L0L
(lp770
(lp771
tp772
a(L4073560901L
L0L
(lp773
(lp774
tp775
a(L3535528620L
L0L
(lp776
(lp777
tp778
a(L3003329639L
L0L
(lp779
(lp780
tp781
a(L1224377915L
L1912178190L
(lp782
(lp783
S'_nres_lazy'
p784
atp785
a(L747337191L
L1926023246L
(lp786
L4294967294L
a(lp787
S'_nres_modmult'
p788
aS'_nres_modmult'
p789
aS'_nres_modadd'
p790
aS'_nres_modadd'
p791
aS'_nres_modmult'
p792
aS'_nres_modsub'
p793
aS'_nres_modsub'
p794
aS'_nres_modsub'
p795
atp796
a(L504602529L
L1912178190L
(lp797
(lp798
S'_nres_modsub'
p799
atp800
a(L166414446L
L3438772250L
(lp801
(lp802
S'_zzn2_zero'
p803
atp804
a(L2120259690L
L1650168448L
(lp805
(lp806
tp807
a(L425776429L
L0L
(lp808
(lp809
tp810
atp811
sL3520L
(S'_zzn2_timesi'
p812
(lp813
(L3985540784L
L1650168448L
(lp814
(lp815
tp816
a(L1767301447L
L1650168448L
(lp817
(lp818
tp819
a(L3880617837L
L1650168448L
(lp820
(lp821
tp822
a(L520110351L
L1912178190L
(lp823
(lp824
S'_mr_track'
p825
atp826
a(L2150497329L
L2175065438L
(lp827
L4294967294L
a(lp828
S'_copy'
p829
aS'_nres_negate'
p830
atp831
a(L4088784394L
L3438772250L
(lp832
(lp833
S'_nres_modadd'
p834
atp835
a(L237979013L
L4079538650L
(lp836
(lp837
S'_copy'
p838
atp839
a(L425776429L
L0L
(lp840
(lp841
tp842
atp843
sL4372L
(S'_mr_compare'
p844
(lp845
(L425776429L
L0L
(lp846
(lp847
tp848
atp849
sL1696L
(S'_zzn2_smul'
p850
(lp851
(L3985540784L
L1650168448L
(lp852
(lp853
tp854
a(L3972579996L
L1650168448L
(lp855
(lp856
tp857
a(L1750571002L
L1650168448L
(lp858
(lp859
tp860
a(L1868153140L
L3438772250L
(lp861
(lp862
S'_mr_track'
p863
atp864
a(L1513879098L
L3438772250L
(lp865
(lp866
S'_size'
p867
atp868
a(L3060495152L
L3438772250L
(lp869
(lp870
S'_nres_modmult'
p871
atp872
a(L3008364936L
L3438772250L
(lp873
(lp874
S'_zero'
p875
atp876
a(L3936326982L
L3438772250L
(lp877
(lp878
S'_size'
p879
atp880
a(L796183583L
L1912178190L
(lp881
(lp882
S'_nres_modmult'
p883
atp884
a(L2280131277L
L1912178190L
(lp885
(lp886
S'_zero'
p887
atp888
a(L425776429L
L0L
(lp889
(lp890
tp891
atp892
ssS'fuzzydups'
p893
c__builtin__
set
p894
((lp895
tp896
Rp897
sS'stringdups'
p898
g894
((lp899
tp900
Rp901
sS'immediates'
p902
(dp903
sS'formaldups'
p904
g894
((lp905
tp906
Rp907
sS'immediatedups'
p908
g894
((lp909
tp910
Rp911
sS'fuzzy'
p912
(dp913
L546021824L
L3696L
sL802572228L
L3520L
sL4240346052L
L2384L
sL2811469962L
L4000L
sL813221501L
L944L
sL3782792530L
L192L
sL2178459926L
L2112L
sL3293720377L
L2848L
sL2612383931L
L1072L
sL1221468764L
L48L
sL2047683101L
L368L
sL4043101566L
L864L
ssS'strings'
p914
(dp915
sS'formal'
p916
(dp917
L486018308L
L128L
sL2391253905L
L1584L
sL3637465364L
L368L
sL4023698844L
L1072L
sL3892325677L
L3520L
sL1974185776L
L3696L
sL795031346L
L592L
sL4132414516L
L720L
sL2417113311L
L544L
sL3301736522L
L3296L
sL2819479374L
L2112L
sL964089808L
L944L
sL1673215694L
L3184L
sL2424388566L
L864L
sL3598712411L
L192L
sL2702987742L
L48L
sL3855701471L
L2384L
sL2249945696L
L1440L
sL3948700130L
L1696L
sL1625919077L
L0L
sL1037627366L
L1328L
sL1007221095L
L1184L
sL1940062952L
L752L
sL1413639659L
L912L
sL2548482669L
L1904L
sL4238835089L
L3408L
sL2998183025L
L2848L
sL1835383034L
L4000L
ssb.